(dp1
S'files'
p2
(dp3
S'_home_rawdata_Envs_venv_lib_python2_7_site-packages_selenium_webdriver_android___init__'
p4
(dp5
S'index'
p6
(dp7
S'html_filename'
p8
S'_home_rawdata_Envs_venv_lib_python2_7_site-packages_selenium_webdriver_android___init__.html'
p9
sS'name'
p10
S'/home/rawdata/Envs/venv/lib/python2.7/site-packages/selenium/webdriver/android/__init__'
p11
sS'nums'
p12
ccopy_reg
_reconstructor
p13
(ccoverage.results
Numbers
p14
c__builtin__
object
p15
NtRp16
(dp17
S'n_files'
p18
I1
sS'n_branches'
p19
I0
sS'n_statements'
p20
I0
sS'n_excluded'
p21
I0
sS'n_partial_branches'
p22
I0
sS'n_missing'
p23
I0
sS'n_missing_branches'
p24
I0
sbssS'hash'
p25
S'\xb0\xc8pN\xaf>\xa0\xbaz\x144\xe0A9\xb8?'
p26
ssS'_home_rawdata_Envs_venv_lib_python2_7_site-packages_selenium_webdriver_remote_mobile'
p27
(dp28
g6
(dp29
g8
S'_home_rawdata_Envs_venv_lib_python2_7_site-packages_selenium_webdriver_remote_mobile.html'
p30
sg10
S'/home/rawdata/Envs/venv/lib/python2.7/site-packages/selenium/webdriver/remote/mobile'
p31
sg12
g13
(g14
g15
NtRp32
(dp33
g18
I1
sg19
I0
sg20
I23
sg21
I0
sg22
I0
sg23
I6
sg24
I0
sbssg25
S'\xd5J\xe7WG\x17\x91<N\xa9\xc7\xac<\x04]m'
p34
ssS'_home_rawdata_Envs_venv_lib_python2_7_site-packages_django_utils_lru_cache'
p35
(dp36
g6
(dp37
g8
S'_home_rawdata_Envs_venv_lib_python2_7_site-packages_django_utils_lru_cache.html'
p38
sg10
S'/home/rawdata/Envs/venv/lib/python2.7/site-packages/django/utils/lru_cache'
p39
sg12
g13
(g14
g15
NtRp40
(dp41
g18
I1
sg19
I0
sg20
I106
sg21
I0
sg22
I0
sg23
I44
sg24
I0
sbssg25
S'{dK=\x11\x18Z\t\xba\xad\xef\xf4F]w\xfc'
p42
ssS'exam_site___init__'
p43
(dp44
g6
(dp45
g8
S'exam_site___init__.html'
p46
sg10
S'exam_site/__init__'
p47
sg12
g13
(g14
g15
NtRp48
(dp49
g18
I1
sg19
I0
sg20
I0
sg21
I0
sg22
I0
sg23
I0
sg24
I0
sbssg25
S'\xb0\xc8pN\xaf>\xa0\xbaz\x144\xe0A9\xb8?'
p50
ssS'_home_rawdata_Envs_venv_lib_python2_7_site-packages_django_db_utils'
p51
(dp52
g6
(dp53
g8
S'_home_rawdata_Envs_venv_lib_python2_7_site-packages_django_db_utils.html'
p54
sg10
S'/home/rawdata/Envs/venv/lib/python2.7/site-packages/django/db/utils'
p55
sg12
g13
(g14
g15
NtRp56
(dp57
g18
I1
sg19
I0
sg20
I204
sg21
I0
sg22
I0
sg23
I73
sg24
I0
sbssg25
S'\xfcw+bn\x15\x845\xfd\xe3Qu\x8eJ\x1c\x0f'
p58
ssS'_home_rawdata_Envs_venv_lib_python2_7_site-packages_django_core_serializers_python'
p59
(dp60
g6
(dp61
g8
S'_home_rawdata_Envs_venv_lib_python2_7_site-packages_django_core_serializers_python.html'
p62
sg10
S'/home/rawdata/Envs/venv/lib/python2.7/site-packages/django/core/serializers/python'
p63
sg12
g13
(g14
g15
NtRp64
(dp65
g18
I1
sg19
I0
sg20
I89
sg21
I0
sg22
I0
sg23
I58
sg24
I0
sbssg25
S'\x8a\xc9\xb2\xfb\xe9\x9e\xd2*\xf5)\xe2\x1d\x15\xf6\x16\x1c'
p66
ssS'_home_rawdata_Envs_venv_lib_python2_7_site-packages_django_contrib_auth_models'
p67
(dp68
g6
(dp69
g8
S'_home_rawdata_Envs_venv_lib_python2_7_site-packages_django_contrib_auth_models.html'
p70
sg10
S'/home/rawdata/Envs/venv/lib/python2.7/site-packages/django/contrib/auth/models'
p71
sg12
g13
(g14
g15
NtRp72
(dp73
g18
I1
sg19
I0
sg20
I236
sg21
I0
sg22
I0
sg23
I99
sg24
I0
sbssg25
S'\xdc\xf4\xc4\xac\xa2\x93#yO\x99\x9b\xbe\x16\xdc<\xa9'
p74
ssS'_home_rawdata_Envs_venv_lib_python2_7_site-packages_django_contrib_auth_signals'
p75
(dp76
g6
(dp77
g8
S'_home_rawdata_Envs_venv_lib_python2_7_site-packages_django_contrib_auth_signals.html'
p78
sg10
S'/home/rawdata/Envs/venv/lib/python2.7/site-packages/django/contrib/auth/signals'
p79
sg12
g13
(g14
g15
NtRp80
(dp81
g18
I1
sg19
I0
sg20
I4
sg21
I0
sg22
I0
sg23
I0
sg24
I0
sbssg25
S'juq\x85\xf8\xf6\x92\xd4\xc6;\xc1\x16\xc2\xaa\xe6\xec'
p82
ssS'_home_rawdata_Envs_venv_lib_python2_7_site-packages_django_db_models_sql___init__'
p83
(dp84
g6
(dp85
g8
S'_home_rawdata_Envs_venv_lib_python2_7_site-packages_django_db_models_sql___init__.html'
p86
sg10
S'/home/rawdata/Envs/venv/lib/python2.7/site-packages/django/db/models/sql/__init__'
p87
sg12
g13
(g14
g15
NtRp88
(dp89
g18
I1
sg19
I0
sg20
I5
sg21
I0
sg22
I0
sg23
I0
sg24
I0
sbssg25
S'\xee\x05~\x14<\xbd\xceO\xa9\xcf\xd3\t\x04\xfbDP'
p90
ssS'_home_rawdata_Envs_venv_lib_python2_7_site-packages_django_apps_config'
p91
(dp92
g6
(dp93
g8
S'_home_rawdata_Envs_venv_lib_python2_7_site-packages_django_apps_config.html'
p94
sg10
S'/home/rawdata/Envs/venv/lib/python2.7/site-packages/django/apps/config'
p95
sg12
g13
(g14
g15
NtRp96
(dp97
g18
I1
sg19
I0
sg20
I84
sg21
I0
sg22
I0
sg23
I23
sg24
I0
sbssg25
S'\xa3_\xad\x91\xdf\x82\x12W\xc5m\x87K\x1e\xe1\xffh'
p98
ssS'_home_rawdata_Envs_venv_lib_python2_7_site-packages_django_core_checks_compatibility_django_1_6_0'
p99
(dp100
g6
(dp101
g8
S'_home_rawdata_Envs_venv_lib_python2_7_site-packages_django_core_checks_compatibility_django_1_6_0.html'
p102
sg10
S'/home/rawdata/Envs/venv/lib/python2.7/site-packages/django/core/checks/compatibility/django_1_6_0'
p103
sg12
g13
(g14
g15
NtRp104
(dp105
g18
I1
sg19
I0
sg20
I36
sg21
I0
sg22
I0
sg23
I8
sg24
I0
sbssg25
S'D\x96\x81\xef\xf6\x8a\nC\x91\xcb~\x87.!\xbc\x0f'
p106
ssS'_home_rawdata_Envs_venv_lib_python2_7_site-packages_django_views_static'
p107
(dp108
g6
(dp109
g8
S'_home_rawdata_Envs_venv_lib_python2_7_site-packages_django_views_static.html'
p110
sg10
S'/home/rawdata/Envs/venv/lib/python2.7/site-packages/django/views/static'
p111
sg12
g13
(g14
g15
NtRp112
(dp113
g18
I1
sg19
I0
sg20
I73
sg21
I0
sg22
I0
sg23
I57
sg24
I0
sbssg25
S'\xe0T\xea\x18IE6\xbf\xdd\x9fHs\x87?\xa5?'
p114
ssS'_home_rawdata_Envs_venv_lib_python2_7_site-packages_django_utils_xmlutils'
p115
(dp116
g6
(dp117
g8
S'_home_rawdata_Envs_venv_lib_python2_7_site-packages_django_utils_xmlutils.html'
p118
sg10
S'/home/rawdata/Envs/venv/lib/python2.7/site-packages/django/utils/xmlutils'
p119
sg12
g13
(g14
g15
NtRp120
(dp121
g18
I1
sg19
I0
sg20
I9
sg21
I0
sg22
I0
sg23
I6
sg24
I0
sbssg25
S'Z;\r+O\xda\xbe\xfb\xa0\xed9\x1c)\x1fW\xa6'
p122
ssS'_home_rawdata_Envs_venv_lib_python2_7_site-packages_selenium_webdriver_opera___init__'
p123
(dp124
g6
(dp125
g8
S'_home_rawdata_Envs_venv_lib_python2_7_site-packages_selenium_webdriver_opera___init__.html'
p126
sg10
S'/home/rawdata/Envs/venv/lib/python2.7/site-packages/selenium/webdriver/opera/__init__'
p127
sg12
g13
(g14
g15
NtRp128
(dp129
g18
I1
sg19
I0
sg20
I0
sg21
I0
sg22
I0
sg23
I0
sg24
I0
sbssg25
S'j\xe4%\xd6^\xf1W1\xb8\x1c\x8a\x7fj\xa9\x1d\xce'
p130
ssS'_home_rawdata_Envs_venv_lib_python2_7_site-packages_django_forms_widgets'
p131
(dp132
g6
(dp133
g8
S'_home_rawdata_Envs_venv_lib_python2_7_site-packages_django_forms_widgets.html'
p134
sg10
S'/home/rawdata/Envs/venv/lib/python2.7/site-packages/django/forms/widgets'
p135
sg12
g13
(g14
g15
NtRp136
(dp137
g18
I1
sg19
I0
sg20
I508
sg21
I0
sg22
I0
sg23
I306
sg24
I0
sbssg25
S'\xfc\xf9\xa2\rn\x9a\xbe\xdb\xd7\xb4`E\x89ae\xe8'
p138
ssS'_home_rawdata_Envs_venv_lib_python2_7_site-packages_selenium_webdriver___init__'
p139
(dp140
g6
(dp141
g8
S'_home_rawdata_Envs_venv_lib_python2_7_site-packages_selenium_webdriver___init__.html'
p142
sg10
S'/home/rawdata/Envs/venv/lib/python2.7/site-packages/selenium/webdriver/__init__'
p143
sg12
g13
(g14
g15
NtRp144
(dp145
g18
I1
sg19
I0
sg20
I15
sg21
I0
sg22
I0
sg23
I0
sg24
I0
sbssg25
S"\xb1\x940\x1b1'j|\x139\x0e\x8a\xf0s\x13r"
p146
ssS'_home_rawdata_Envs_venv_lib_python2_7_site-packages_django_db_backends_sqlite3_schema'
p147
(dp148
g6
(dp149
g8
S'_home_rawdata_Envs_venv_lib_python2_7_site-packages_django_db_backends_sqlite3_schema.html'
p150
sg10
S'/home/rawdata/Envs/venv/lib/python2.7/site-packages/django/db/backends/sqlite3/schema'
p151
sg12
g13
(g14
g15
NtRp152
(dp153
g18
I1
sg19
I0
sg20
I113
sg21
I0
sg22
I0
sg23
I38
sg24
I0
sbssg25
S'\x19l\xca\x1c\x1c\xf6R\xcc\x08g\x10Yr\x8f\xbc\xc5'
p154
ssS'_home_rawdata_Envs_venv_lib_python2_7_site-packages_selenium_webdriver_firefox_webdriver'
p155
(dp156
g6
(dp157
g8
S'_home_rawdata_Envs_venv_lib_python2_7_site-packages_selenium_webdriver_firefox_webdriver.html'
p158
sg10
S'/home/rawdata/Envs/venv/lib/python2.7/site-packages/selenium/webdriver/firefox/webdriver'
p159
sg12
g13
(g14
g15
NtRp160
(dp161
g18
I1
sg19
I0
sg20
I42
sg21
I0
sg22
I0
sg23
I7
sg24
I0
sbssg25
S'\x08\xf5.\r\xc8\t\x1a]\x90\xa2\xcc\x1e\x07OK\xe9'
p162
ssS'_home_rawdata_Envs_venv_lib_python2_7_site-packages_django_contrib___init__'
p163
(dp164
g6
(dp165
g8
S'_home_rawdata_Envs_venv_lib_python2_7_site-packages_django_contrib___init__.html'
p166
sg10
S'/home/rawdata/Envs/venv/lib/python2.7/site-packages/django/contrib/__init__'
p167
sg12
g13
(g14
g15
NtRp168
(dp169
g18
I1
sg19
I0
sg20
I0
sg21
I0
sg22
I0
sg23
I0
sg24
I0
sbssg25
S'\xb0\xc8pN\xaf>\xa0\xbaz\x144\xe0A9\xb8?'
p170
ssS'_home_rawdata_Envs_venv_lib_python2_7_site-packages_selenium_webdriver_chrome___init__'
p171
(dp172
g6
(dp173
g8
S'_home_rawdata_Envs_venv_lib_python2_7_site-packages_selenium_webdriver_chrome___init__.html'
p174
sg10
S'/home/rawdata/Envs/venv/lib/python2.7/site-packages/selenium/webdriver/chrome/__init__'
p175
sg12
g13
(g14
g15
NtRp176
(dp177
g18
I1
sg19
I0
sg20
I0
sg21
I0
sg22
I0
sg23
I0
sg24
I0
sbssg25
S'W\xed\xba.gR]] \xb4\x9c\x7f\xd5b\xe9\x83'
p178
ssS'_home_rawdata_Envs_venv_lib_python2_7_site-packages_selenium___init__'
p179
(dp180
g6
(dp181
g8
S'_home_rawdata_Envs_venv_lib_python2_7_site-packages_selenium___init__.html'
p182
sg10
S'/home/rawdata/Envs/venv/lib/python2.7/site-packages/selenium/__init__'
p183
sg12
g13
(g14
g15
NtRp184
(dp185
g18
I1
sg19
I0
sg20
I2
sg21
I0
sg22
I0
sg23
I0
sg24
I0
sbssg25
S'\x8c$s\xd7\x8e\xc1i\xb0;\x7f\xbdS\x1b;\x8b8'
p186
ssS'apps_exams_migrations___init__'
p187
(dp188
g6
(dp189
g8
S'apps_exams_migrations___init__.html'
p190
sg10
S'apps/exams/migrations/__init__'
p191
sg12
g13
(g14
g15
NtRp192
(dp193
g18
I1
sg19
I0
sg20
I0
sg21
I0
sg22
I0
sg23
I0
sg24
I0
sbssg25
S'\xb0\xc8pN\xaf>\xa0\xbaz\x144\xe0A9\xb8?'
p194
ssS'_home_rawdata_Envs_venv_lib_python2_7_site-packages_django_db_migrations___init__'
p195
(dp196
g6
(dp197
g8
S'_home_rawdata_Envs_venv_lib_python2_7_site-packages_django_db_migrations___init__.html'
p198
sg10
S'/home/rawdata/Envs/venv/lib/python2.7/site-packages/django/db/migrations/__init__'
p199
sg12
g13
(g14
g15
NtRp200
(dp201
g18
I1
sg19
I0
sg20
I2
sg21
I0
sg22
I0
sg23
I0
sg24
I0
sbssg25
S'\xe3A\xfdeM\xdcG\r\xfe\x11\x0cB\xe4\xb8\x00]'
p202
ssS'_home_rawdata_Envs_venv_lib_python2_7_site-packages_django_utils__os'
p203
(dp204
g6
(dp205
g8
S'_home_rawdata_Envs_venv_lib_python2_7_site-packages_django_utils__os.html'
p206
sg10
S'/home/rawdata/Envs/venv/lib/python2.7/site-packages/django/utils/_os'
p207
sg12
g13
(g14
g15
NtRp208
(dp209
g18
I1
sg19
I0
sg20
I58
sg21
I0
sg22
I0
sg23
I35
sg24
I0
sbssg25
S'\xc9\xc0\x955\x1a\xb7\x9f\x8c\xf9B\xd9g\xb7\n\xe6\x9b'
p210
ssS'_home_rawdata_Envs_venv_lib_python2_7_site-packages_django_contrib_sessions_migrations___init__'
p211
(dp212
g6
(dp213
g8
S'_home_rawdata_Envs_venv_lib_python2_7_site-packages_django_contrib_sessions_migrations___init__.html'
p214
sg10
S'/home/rawdata/Envs/venv/lib/python2.7/site-packages/django/contrib/sessions/migrations/__init__'
p215
sg12
g13
(g14
g15
NtRp216
(dp217
g18
I1
sg19
I0
sg20
I0
sg21
I0
sg22
I0
sg23
I0
sg24
I0
sbssg25
S'\xb0\xc8pN\xaf>\xa0\xbaz\x144\xe0A9\xb8?'
p218
ssS'_home_rawdata_Envs_venv_lib_python2_7_site-packages_django_db_models_base'
p219
(dp220
g6
(dp221
g8
S'_home_rawdata_Envs_venv_lib_python2_7_site-packages_django_db_models_base.html'
p222
sg10
S'/home/rawdata/Envs/venv/lib/python2.7/site-packages/django/db/models/base'
p223
sg12
g13
(g14
g15
NtRp224
(dp225
g18
I1
sg19
I0
sg20
I730
sg21
I0
sg22
I0
sg23
I382
sg24
I0
sbssg25
S'\xfcb\x94N\ryR\xde\x7f\xe0"\x80\xc7\x8d\xba\xc5'
p226
ssS'_home_rawdata_Envs_venv_lib_python2_7_site-packages_django_utils_ipv6'
p227
(dp228
g6
(dp229
g8
S'_home_rawdata_Envs_venv_lib_python2_7_site-packages_django_utils_ipv6.html'
p230
sg10
S'/home/rawdata/Envs/venv/lib/python2.7/site-packages/django/utils/ipv6'
p231
sg12
g13
(g14
g15
NtRp232
(dp233
g18
I1
sg19
I0
sg20
I108
sg21
I0
sg22
I0
sg23
I99
sg24
I0
sbssg25
S'\x0c\xa8\xed\xf2\x87`+\xb3\xf1\xab\xe6\xe9C\x04\x85\x12'
p234
ssS'apps_questions_migrations_0001_initial'
p235
(dp236
g6
(dp237
g8
S'apps_questions_migrations_0001_initial.html'
p238
sg10
S'apps/questions/migrations/0001_initial'
p239
sg12
g13
(g14
g15
NtRp240
(dp241
g18
I1
sg19
I0
sg20
I5
sg21
I0
sg22
I0
sg23
I0
sg24
I0
sbssg25
S'Q\x7f,\xd0\xdca\x98\xd3\xb8\x8a\xc7\x83\xf4\x8e\xf5\x9b'
p242
ssS'apps_exams___init__'
p243
(dp244
g6
(dp245
g8
S'apps_exams___init__.html'
p246
sg10
S'apps/exams/__init__'
p247
sg12
g13
(g14
g15
NtRp248
(dp249
g18
I1
sg19
I0
sg20
I0
sg21
I0
sg22
I0
sg23
I0
sg24
I0
sbssg25
S'\xb0\xc8pN\xaf>\xa0\xbaz\x144\xe0A9\xb8?'
p250
ssS'_home_rawdata_Envs_venv_lib_python2_7_site-packages_django_contrib_staticfiles_apps'
p251
(dp252
g6
(dp253
g8
S'_home_rawdata_Envs_venv_lib_python2_7_site-packages_django_contrib_staticfiles_apps.html'
p254
sg10
S'/home/rawdata/Envs/venv/lib/python2.7/site-packages/django/contrib/staticfiles/apps'
p255
sg12
g13
(g14
g15
NtRp256
(dp257
g18
I1
sg19
I0
sg20
I5
sg21
I0
sg22
I0
sg23
I0
sg24
I0
sbssg25
S'\xdf6O\x8b\x18`\xc3\xa0Uq~:\x12\xf4\x03U'
p258
ssS'_home_rawdata_Envs_venv_lib_python2_7_site-packages_django_core_signing'
p259
(dp260
g6
(dp261
g8
S'_home_rawdata_Envs_venv_lib_python2_7_site-packages_django_core_signing.html'
p262
sg10
S'/home/rawdata/Envs/venv/lib/python2.7/site-packages/django/core/signing'
p263
sg12
g13
(g14
g15
NtRp264
(dp265
g18
I1
sg19
I0
sg20
I87
sg21
I0
sg22
I0
sg23
I55
sg24
I0
sbssg25
S'\xecP\xd6\x0b@~\xaa\x81\x13>\x94\xc9\xcf\x7fh\x93'
p266
ssS'_home_rawdata_Envs_venv_lib_python2_7_site-packages_selenium_webdriver_common_utils'
p267
(dp268
g6
(dp269
g8
S'_home_rawdata_Envs_venv_lib_python2_7_site-packages_selenium_webdriver_common_utils.html'
p270
sg10
S'/home/rawdata/Envs/venv/lib/python2.7/site-packages/selenium/webdriver/common/utils'
p271
sg12
g13
(g14
g15
NtRp272
(dp273
g18
I1
sg19
I0
sg20
I30
sg21
I0
sg22
I0
sg23
I11
sg24
I0
sbssg25
S'\x88\x97\xfd\x1b\n\xa4\xeb\xd7\x03\xdf\x1cs\xfev\xa7>'
p274
ssS'_home_rawdata_Envs_venv_lib_python2_7_site-packages_django_core_files_uploadhandler'
p275
(dp276
g6
(dp277
g8
S'_home_rawdata_Envs_venv_lib_python2_7_site-packages_django_core_files_uploadhandler.html'
p278
sg10
S'/home/rawdata/Envs/venv/lib/python2.7/site-packages/django/core/files/uploadhandler'
p279
sg12
g13
(g14
g15
NtRp280
(dp281
g18
I1
sg19
I0
sg20
I78
sg21
I0
sg22
I0
sg23
I42
sg24
I0
sbssg25
S'\xa7\x82\x1f\x02\x19\x1eT\x96=y\xa5bk\xeb\xa1\xbf'
p282
ssS'_home_rawdata_Envs_venv_lib_python2_7_site-packages_django_contrib_sessions___init__'
p283
(dp284
g6
(dp285
g8
S'_home_rawdata_Envs_venv_lib_python2_7_site-packages_django_contrib_sessions___init__.html'
p286
sg10
S'/home/rawdata/Envs/venv/lib/python2.7/site-packages/django/contrib/sessions/__init__'
p287
sg12
g13
(g14
g15
NtRp288
(dp289
g18
I1
sg19
I0
sg20
I1
sg21
I0
sg22
I0
sg23
I0
sg24
I0
sbssg25
S'\x99j\xbb\x1d\xaf\xb9%M\xb7w\x0c\xdc\xd5\xec\xfe\xcc'
p290
ssS'_home_rawdata_Envs_venv_lib_python2_7_site-packages_django_db_models_related'
p291
(dp292
g6
(dp293
g8
S'_home_rawdata_Envs_venv_lib_python2_7_site-packages_django_db_models_related.html'
p294
sg10
S'/home/rawdata/Envs/venv/lib/python2.7/site-packages/django/db/models/related'
p295
sg12
g13
(g14
g15
NtRp296
(dp297
g18
I1
sg19
I0
sg20
I35
sg21
I0
sg22
I0
sg23
I13
sg24
I0
sbssg25
S'\xc5\xcevX(\x17X3\xf2-r\xf4UM\x90\xac'
p298
ssS'_home_rawdata_Envs_venv_lib_python2_7_site-packages_django_utils_itercompat'
p299
(dp300
g6
(dp301
g8
S'_home_rawdata_Envs_venv_lib_python2_7_site-packages_django_utils_itercompat.html'
p302
sg10
S'/home/rawdata/Envs/venv/lib/python2.7/site-packages/django/utils/itercompat'
p303
sg12
g13
(g14
g15
NtRp304
(dp305
g18
I1
sg19
I0
sg20
I6
sg21
I0
sg22
I0
sg23
I2
sg24
I0
sbssg25
S"\xec\x87\xff\xc4\xf4\x1ah\xc7\x8f\\%'\xc7\x8e\x0b\xbc"
p306
ssS'_home_rawdata_Envs_venv_lib_python2_7_site-packages_django_core_serializers_xml_serializer'
p307
(dp308
g6
(dp309
g8
S'_home_rawdata_Envs_venv_lib_python2_7_site-packages_django_core_serializers_xml_serializer.html'
p310
sg10
S'/home/rawdata/Envs/venv/lib/python2.7/site-packages/django/core/serializers/xml_serializer'
p311
sg12
g13
(g14
g15
NtRp312
(dp313
g18
I1
sg19
I0
sg20
I212
sg21
I0
sg22
I0
sg23
I165
sg24
I0
sbssg25
S'\x99\xb0\x92\x8cQ\xa4k\x1b\x04\n\xa2\x85HZG\x94'
p314
ssS'_home_rawdata_Envs_venv_lib_python2_7_site-packages_django_contrib_admin_exceptions'
p315
(dp316
g6
(dp317
g8
S'_home_rawdata_Envs_venv_lib_python2_7_site-packages_django_contrib_admin_exceptions.html'
p318
sg10
S'/home/rawdata/Envs/venv/lib/python2.7/site-packages/django/contrib/admin/exceptions'
p319
sg12
g13
(g14
g15
NtRp320
(dp321
g18
I1
sg19
I0
sg20
I5
sg21
I0
sg22
I0
sg23
I0
sg24
I0
sbssg25
S'J`\x85\xe1= \x00c\x95\xd7\x98\x0b\x0f\xf7\xf4\x7f'
p322
ssS'_home_rawdata_Envs_venv_lib_python2_7_site-packages_django_filters_widgets'
p323
(dp324
g6
(dp325
g8
S'_home_rawdata_Envs_venv_lib_python2_7_site-packages_django_filters_widgets.html'
p326
sg10
S'/home/rawdata/Envs/venv/lib/python2.7/site-packages/django_filters/widgets'
p327
sg12
g13
(g14
g15
NtRp328
(dp329
g18
I1
sg19
I0
sg20
I72
sg21
I2
sg22
I0
sg23
I45
sg24
I0
sbssg25
S'\x8c\xb0h&\xa4S\xe1\xe5\x1d\xab\xec\xf9\x95nM\xb2'
p330
ssS'_home_rawdata_Envs_venv_lib_python2_7_site-packages_selenium_webdriver_common_keys'
p331
(dp332
g6
(dp333
g8
S'_home_rawdata_Envs_venv_lib_python2_7_site-packages_selenium_webdriver_common_keys.html'
p334
sg10
S'/home/rawdata/Envs/venv/lib/python2.7/site-packages/selenium/webdriver/common/keys'
p335
sg12
g13
(g14
g15
NtRp336
(dp337
g18
I1
sg19
I0
sg20
I67
sg21
I0
sg22
I0
sg23
I0
sg24
I0
sbssg25
S'\xaa\x8b\xc6\xda\xbbp\x91p#\t\xf3%\x9b\xd0\xa5\x1b'
p338
ssS'_home_rawdata_Envs_venv_lib_python2_7_site-packages_rest_framework_utils_model_meta'
p339
(dp340
g6
(dp341
g8
S'_home_rawdata_Envs_venv_lib_python2_7_site-packages_rest_framework_utils_model_meta.html'
p342
sg10
S'/home/rawdata/Envs/venv/lib/python2.7/site-packages/rest_framework/utils/model_meta'
p343
sg12
g13
(g14
g15
NtRp344
(dp345
g18
I1
sg19
I0
sg20
I64
sg21
I0
sg22
I0
sg23
I48
sg24
I0
sbssg25
S'v\x01\xb0mt\x98Ya\xb0+u~f2\x19\xbc'
p346
ssS'_home_rawdata_Envs_venv_lib_python2_7_site-packages_django_utils_datastructures'
p347
(dp348
g6
(dp349
g8
S'_home_rawdata_Envs_venv_lib_python2_7_site-packages_django_utils_datastructures.html'
p350
sg10
S'/home/rawdata/Envs/venv/lib/python2.7/site-packages/django/utils/datastructures'
p351
sg12
g13
(g14
g15
NtRp352
(dp353
g18
I1
sg19
I0
sg20
I317
sg21
I0
sg22
I0
sg23
I195
sg24
I0
sbssg25
S'\x9f\xd2\xfd\x96C`\x00\xb5\xc9d\xf8\xe6\x19\x7f[\n'
p354
ssS'_home_rawdata_Envs_venv_lib_python2_7_site-packages_django_core_signals'
p355
(dp356
g6
(dp357
g8
S'_home_rawdata_Envs_venv_lib_python2_7_site-packages_django_core_signals.html'
p358
sg10
S'/home/rawdata/Envs/venv/lib/python2.7/site-packages/django/core/signals'
p359
sg12
g13
(g14
g15
NtRp360
(dp361
g18
I1
sg19
I0
sg20
I4
sg21
I0
sg22
I0
sg23
I0
sg24
I0
sbssg25
S'\xa8\x92\x82\x13=\x82/\x06\xba\xb2\xa6\xad\xc4o\x81\xc2'
p362
ssS'apps_accounts_tests___init__'
p363
(dp364
S'index'
p365
(dp366
S'html_filename'
p367
S'apps_accounts_tests___init__.html'
p368
sS'name'
p369
S'apps/accounts/tests/__init__'
p370
sS'nums'
p371
g13
(g14
g15
NtRp372
(dp373
g18
I1
sg19
I0
sg20
I2
sg21
I0
sg22
I0
sg23
I0
sg24
I0
sbssS'hash'
p374
S'\xa8\x9a\xea\xbc\xe1\x99\x85\x91\x7f%\x10\xc4\xfc^\xf6j'
p375
ssS'_home_rawdata_Envs_venv_lib_python2_7_site-packages_django_utils_dateformat'
p376
(dp377
g6
(dp378
g8
S'_home_rawdata_Envs_venv_lib_python2_7_site-packages_django_utils_dateformat.html'
p379
sg10
S'/home/rawdata/Envs/venv/lib/python2.7/site-packages/django/utils/dateformat'
p380
sg12
g13
(g14
g15
NtRp381
(dp382
g18
I1
sg19
I0
sg20
I184
sg21
I0
sg22
I0
sg23
I124
sg24
I0
sbssg25
S'\x84\xcb10\x90\x17\x8f7\\z\xeb\xfa\x90\x99\xe0o'
p383
ssS'_home_rawdata_Envs_venv_lib_python2_7_site-packages_django_db_models_fields_related'
p384
(dp385
g6
(dp386
g367
S'_home_rawdata_Envs_venv_lib_python2_7_site-packages_django_db_models_fields_related.html'
p387
sg369
S'/home/rawdata/Envs/venv/lib/python2.7/site-packages/django/db/models/fields/related'
p388
sg371
g13
(g14
g15
NtRp389
(dp390
g18
I1
sg19
I0
sg20
I1181
sg21
I0
sg22
I0
sg23
I647
sg24
I0
sbssg25
S'\xb6F\xac\xda\x16\xa8\x96\x10\x02gFzd\xdfD\x99'
p391
ssS'_home_rawdata_Envs_venv_lib_python2_7_site-packages_django_core_management_commands_dumpdata'
p392
(dp393
g6
(dp394
g8
S'_home_rawdata_Envs_venv_lib_python2_7_site-packages_django_core_management_commands_dumpdata.html'
p395
sg10
S'/home/rawdata/Envs/venv/lib/python2.7/site-packages/django/core/management/commands/dumpdata'
p396
sg12
g13
(g14
g15
NtRp397
(dp398
g18
I1
sg19
I0
sg20
I145
sg21
I0
sg22
I0
sg23
I91
sg24
I0
sbssg25
S'Nw3C\xe9\xc6\x009\xd3|\xa3\x9e\xd4"\x149'
p399
ssS'_home_rawdata_Envs_venv_lib_python2_7_site-packages_django_utils_encoding'
p400
(dp401
g6
(dp402
g8
S'_home_rawdata_Envs_venv_lib_python2_7_site-packages_django_utils_encoding.html'
p403
sg10
S'/home/rawdata/Envs/venv/lib/python2.7/site-packages/django/utils/encoding'
p404
sg12
g13
(g14
g15
NtRp405
(dp406
g18
I1
sg19
I0
sg20
I98
sg21
I0
sg22
I0
sg23
I39
sg24
I0
sbssg25
S'?\x85\x9f\xa8\xacwl\xe0\xb2\x87 \xc2|<\xcb\x0e'
p407
ssS'_home_rawdata_Envs_venv_lib_python2_7_site-packages_django_utils_timezone'
p408
(dp409
g6
(dp410
g367
S'_home_rawdata_Envs_venv_lib_python2_7_site-packages_django_utils_timezone.html'
p411
sg369
S'/home/rawdata/Envs/venv/lib/python2.7/site-packages/django/utils/timezone'
p412
sg371
g13
(g14
g15
NtRp413
(dp414
g18
I1
sg19
I0
sg20
I145
sg21
I0
sg22
I0
sg23
I87
sg24
I0
sbssg25
S'\x05/\xff\xa2\x93\x82\x91\xde\xd1X\xc8T\xb0\xcd%\xff'
p415
ssS'_home_rawdata_Envs_venv_lib_python2_7_site-packages_django_db_models_sql_where'
p416
(dp417
g6
(dp418
g8
S'_home_rawdata_Envs_venv_lib_python2_7_site-packages_django_db_models_sql_where.html'
p419
sg10
S'/home/rawdata/Envs/venv/lib/python2.7/site-packages/django/db/models/sql/where'
p420
sg12
g13
(g14
g15
NtRp421
(dp422
g18
I1
sg19
I0
sg20
I236
sg21
I0
sg22
I0
sg23
I153
sg24
I0
sbssg25
S'V\xc8\xad\xc0\xb5]\xde\xd9\xb0\xedW\x94TF\x96\xa3'
p423
ssS'_home_rawdata_Envs_venv_lib_python2_7_site-packages_django_template_response'
p424
(dp425
g6
(dp426
g8
S'_home_rawdata_Envs_venv_lib_python2_7_site-packages_django_template_response.html'
p427
sg10
S'/home/rawdata/Envs/venv/lib/python2.7/site-packages/django/template/response'
p428
sg12
g13
(g14
g15
NtRp429
(dp430
g18
I1
sg19
I0
sg20
I72
sg21
I0
sg22
I0
sg23
I50
sg24
I0
sbssg25
S'\xd3\x16\xf6o|a\x94\x996\xc2\xce>>\xca\xeb\x19'
p431
ssS'_home_rawdata_Envs_venv_lib_python2_7_site-packages_django_contrib_contenttypes_generic'
p432
(dp433
g365
(dp434
g367
S'_home_rawdata_Envs_venv_lib_python2_7_site-packages_django_contrib_contenttypes_generic.html'
p435
sg369
S'/home/rawdata/Envs/venv/lib/python2.7/site-packages/django/contrib/contenttypes/generic'
p436
sg371
g13
(g14
g15
NtRp437
(dp438
g18
I1
sg19
I0
sg20
I7
sg21
I0
sg22
I0
sg23
I0
sg24
I0
sbssg374
S'9\x9a\xa5\xdc\xa0}\xba\x86\x8d\xc4\x06T5`\xad\xcf'
p439
ssS'_home_rawdata_Envs_venv_lib_python2_7_site-packages_django_http_request'
p440
(dp441
g6
(dp442
g8
S'_home_rawdata_Envs_venv_lib_python2_7_site-packages_django_http_request.html'
p443
sg10
S'/home/rawdata/Envs/venv/lib/python2.7/site-packages/django/http/request'
p444
sg12
g13
(g14
g15
NtRp445
(dp446
g18
I1
sg19
I0
sg20
I306
sg21
I0
sg22
I0
sg23
I230
sg24
I0
sbssg25
S'\x9b\x11\xf7\xf2\x84 z\x0f\xde\x80\xd2>\x07\xbcWZ'
p447
ssS'_home_rawdata_Envs_venv_lib_python2_7_site-packages_django_core_files_uploadedfile'
p448
(dp449
g6
(dp450
g8
S'_home_rawdata_Envs_venv_lib_python2_7_site-packages_django_core_files_uploadedfile.html'
p451
sg10
S'/home/rawdata/Envs/venv/lib/python2.7/site-packages/django/core/files/uploadedfile'
p452
sg12
g13
(g14
g15
NtRp453
(dp454
g18
I1
sg19
I0
sg20
I60
sg21
I0
sg22
I0
sg23
I33
sg24
I0
sbssg25
S'\xf0\x89\x91{\xe4\xbb\xa5\xe2\xee\xd4\xbc6G\x86\x97\x98'
p455
ssS'_home_rawdata_Envs_venv_lib_python2_7_site-packages_django_forms_forms'
p456
(dp457
g6
(dp458
g8
S'_home_rawdata_Envs_venv_lib_python2_7_site-packages_django_forms_forms.html'
p459
sg10
S'/home/rawdata/Envs/venv/lib/python2.7/site-packages/django/forms/forms'
p460
sg12
g13
(g14
g15
NtRp461
(dp462
g18
I1
sg19
I0
sg20
I325
sg21
I0
sg22
I0
sg23
I240
sg24
I0
sbssg25
S'\xb0\xa7gp\x91\x07@\xd5\xeb\x8aJ\xc0\x06?\xd7*'
p463
ssS'_home_rawdata_Envs_venv_lib_python2_7_site-packages_django_core_handlers_base'
p464
(dp465
g6
(dp466
g8
S'_home_rawdata_Envs_venv_lib_python2_7_site-packages_django_core_handlers_base.html'
p467
sg10
S'/home/rawdata/Envs/venv/lib/python2.7/site-packages/django/core/handlers/base'
p468
sg12
g13
(g14
g15
NtRp469
(dp470
g18
I1
sg19
I0
sg20
I145
sg21
I0
sg22
I0
sg23
I121
sg24
I0
sbssg25
S'\xc4\xcc\xd2\x06_\x85\xe6W\x9aG\x9bU\xd8<\x8b!'
p471
ssS'manage'
p472
(dp473
g6
(dp474
g8
S'manage.html'
p475
sg10
g472
sg12
g13
(g14
g15
NtRp476
(dp477
g18
I1
sg19
I0
sg20
I6
sg21
I0
sg22
I0
sg23
I0
sg24
I0
sbssg25
S'\xa6\x9d\xce\x81\x9aG\x8bj\xa7}\x85\xfb\x85\xa0\xc3`'
p478
ssS'_home_rawdata_Envs_venv_lib_python2_7_site-packages_rest_framework_utils_representation'
p479
(dp480
g6
(dp481
g8
S'_home_rawdata_Envs_venv_lib_python2_7_site-packages_rest_framework_utils_representation.html'
p482
sg10
S'/home/rawdata/Envs/venv/lib/python2.7/site-packages/rest_framework/utils/representation'
p483
sg12
g13
(g14
g15
NtRp484
(dp485
g18
I1
sg19
I0
sg20
I61
sg21
I0
sg22
I0
sg23
I50
sg24
I0
sbssg25
S'\xe7\xd3\xfc=D\xd8\x98{\xf3#KL\xf2* \xa1'
p486
ssS'_home_rawdata_Envs_venv_lib_python2_7_site-packages_django_contrib_auth_admin'
p487
(dp488
g6
(dp489
g8
S'_home_rawdata_Envs_venv_lib_python2_7_site-packages_django_contrib_auth_admin.html'
p490
sg10
S'/home/rawdata/Envs/venv/lib/python2.7/site-packages/django/contrib/auth/admin'
p491
sg12
g13
(g14
g15
NtRp492
(dp493
g18
I1
sg19
I0
sg20
I99
sg21
I0
sg22
I0
sg23
I49
sg24
I0
sbssg25
S'\xec=\xba\xb3vet\x99\x7fm\xb2\x8d/G\x84s'
p494
ssS'_home_rawdata_Envs_venv_lib_python2_7_site-packages_django_db_migrations_operations_models'
p495
(dp496
g6
(dp497
g8
S'_home_rawdata_Envs_venv_lib_python2_7_site-packages_django_db_migrations_operations_models.html'
p498
sg10
S'/home/rawdata/Envs/venv/lib/python2.7/site-packages/django/db/migrations/operations/models'
p499
sg12
g13
(g14
g15
NtRp500
(dp501
g18
I1
sg19
I0
sg20
I227
sg21
I0
sg22
I0
sg23
I140
sg24
I0
sbssg25
S'\xa3\x12\xa71#\xac\xf2\xb9\x0b\x1e\xf9\xd2g\xfa\x0e\xf8'
p502
ssS'_home_rawdata_Envs_venv_lib_python2_7_site-packages_django_utils_termcolors'
p503
(dp504
g6
(dp505
g8
S'_home_rawdata_Envs_venv_lib_python2_7_site-packages_django_utils_termcolors.html'
p506
sg10
S'/home/rawdata/Envs/venv/lib/python2.7/site-packages/django/utils/termcolors'
p507
sg12
g13
(g14
g15
NtRp508
(dp509
g18
I1
sg19
I0
sg20
I57
sg21
I0
sg22
I0
sg23
I29
sg24
I0
sbssg25
S'\x91\x9cU\x19\xc3\xde\x93>\x81\x83\xef\x12\x1c?.\x1c'
p510
ssS'_home_rawdata_Envs_venv_lib_python2_7_site-packages_django_views_generic_dates'
p511
(dp512
g6
(dp513
g8
S'_home_rawdata_Envs_venv_lib_python2_7_site-packages_django_views_generic_dates.html'
p514
sg10
S'/home/rawdata/Envs/venv/lib/python2.7/site-packages/django/views/generic/dates'
p515
sg12
g13
(g14
g15
NtRp516
(dp517
g18
I1
sg19
I0
sg20
I320
sg21
I0
sg22
I0
sg23
I217
sg24
I0
sbssg25
S'\xcdeq\x15j\xce2c\rw%q\x9dI7\x0c'
p518
ssS'_home_rawdata_Envs_venv_lib_python2_7_site-packages_django_core_management_commands___init__'
p519
(dp520
g6
(dp521
g8
S'_home_rawdata_Envs_venv_lib_python2_7_site-packages_django_core_management_commands___init__.html'
p522
sg10
S'/home/rawdata/Envs/venv/lib/python2.7/site-packages/django/core/management/commands/__init__'
p523
sg12
g13
(g14
g15
NtRp524
(dp525
g18
I1
sg19
I0
sg20
I0
sg21
I0
sg22
I0
sg23
I0
sg24
I0
sbssg25
S'\xb0\xc8pN\xaf>\xa0\xbaz\x144\xe0A9\xb8?'
p526
ssS'_home_rawdata_Envs_venv_lib_python2_7_site-packages_django_db_models_sql_compiler'
p527
(dp528
g6
(dp529
g8
S'_home_rawdata_Envs_venv_lib_python2_7_site-packages_django_db_models_sql_compiler.html'
p530
sg10
S'/home/rawdata/Envs/venv/lib/python2.7/site-packages/django/db/models/sql/compiler'
p531
sg12
g13
(g14
g15
NtRp532
(dp533
g18
I1
sg19
I0
sg20
I703
sg21
I0
sg22
I0
sg23
I390
sg24
I0
sbssg25
S'\x84\n\xb4f\x87\xf9\xa1x\x13Gy\xda\x96\x91F\x11'
p534
ssS'_home_rawdata_Envs_venv_lib_python2_7_site-packages_django_contrib_admin_validation'
p535
(dp536
g6
(dp537
g8
S'_home_rawdata_Envs_venv_lib_python2_7_site-packages_django_contrib_admin_validation.html'
p538
sg10
S'/home/rawdata/Envs/venv/lib/python2.7/site-packages/django/contrib/admin/validation'
p539
sg12
g13
(g14
g15
NtRp540
(dp541
g18
I1
sg19
I0
sg20
I259
sg21
I0
sg22
I0
sg23
I214
sg24
I0
sbssg25
S"'\x13\x85\xc0\x9c\xf9]\xeb \xfd\x187\xc4\xca+\xb3"
p542
ssS'_home_rawdata_Envs_venv_lib_python2_7_site-packages_selenium_webdriver_support___init__'
p543
(dp544
g6
(dp545
g8
S'_home_rawdata_Envs_venv_lib_python2_7_site-packages_selenium_webdriver_support___init__.html'
p546
sg10
S'/home/rawdata/Envs/venv/lib/python2.7/site-packages/selenium/webdriver/support/__init__'
p547
sg12
g13
(g14
g15
NtRp548
(dp549
g18
I1
sg19
I0
sg20
I0
sg21
I0
sg22
I0
sg23
I0
sg24
I0
sbssg25
S'q\x8fq\xd4~\xb6{-\xef\xd0e\x8d\x9e\xc9\x93\x8a'
p550
ssS'_home_rawdata_Envs_venv_lib_python2_7_site-packages_selenium_webdriver_common_action_chains'
p551
(dp552
g6
(dp553
g8
S'_home_rawdata_Envs_venv_lib_python2_7_site-packages_selenium_webdriver_common_action_chains.html'
p554
sg10
S'/home/rawdata/Envs/venv/lib/python2.7/site-packages/selenium/webdriver/common/action_chains'
p555
sg12
g13
(g14
g15
NtRp556
(dp557
g18
I1
sg19
I0
sg20
I78
sg21
I0
sg22
I0
sg23
I55
sg24
I0
sbssg25
S'\xed\xca\xee6O\x05\xa5cHv\xbfw\xefVk8'
p558
ssS'_home_rawdata_Envs_venv_lib_python2_7_site-packages_django_contrib_admin___init__'
p559
(dp560
g6
(dp561
g8
S'_home_rawdata_Envs_venv_lib_python2_7_site-packages_django_contrib_admin___init__.html'
p562
sg10
S'/home/rawdata/Envs/venv/lib/python2.7/site-packages/django/contrib/admin/__init__'
p563
sg12
g13
(g14
g15
NtRp564
(dp565
g18
I1
sg19
I0
sg20
I10
sg21
I0
sg22
I0
sg23
I0
sg24
I0
sbssg25
S'w\xaa\x9dl\xe9\xab\x16\x8b\x9f\x00\\*pe\xfah'
p566
ssS'_home_rawdata_Envs_venv_lib_python2_7_site-packages_django_contrib_contenttypes_checks'
p567
(dp568
g6
(dp569
g8
S'_home_rawdata_Envs_venv_lib_python2_7_site-packages_django_contrib_contenttypes_checks.html'
p570
sg10
S'/home/rawdata/Envs/venv/lib/python2.7/site-packages/django/contrib/contenttypes/checks'
p571
sg12
g13
(g14
g15
NtRp572
(dp573
g18
I1
sg19
I0
sg20
I10
sg21
I0
sg22
I0
sg23
I1
sg24
I0
sbssg25
S'\xd1\xc8w\xe5\xbf\x03\xa5\xd1\xbexc\xbb\x98\xcf{B'
p574
ssS'_home_rawdata_Envs_venv_lib_python2_7_site-packages_django_utils_version'
p575
(dp576
g6
(dp577
g8
S'_home_rawdata_Envs_venv_lib_python2_7_site-packages_django_utils_version.html'
p578
sg10
S'/home/rawdata/Envs/venv/lib/python2.7/site-packages/django/utils/version'
p579
sg12
g13
(g14
g15
NtRp580
(dp581
g18
I1
sg19
I0
sg20
I29
sg21
I0
sg22
I0
sg23
I15
sg24
I0
sbssg25
S'\x89\x87\xe6q\xaf\xab\xc0\x1aLJ\x16\xd5\xc5\x9a\xdef'
p582
ssS'_home_rawdata_Envs_venv_lib_python2_7_site-packages_django_contrib_admin_actions'
p583
(dp584
g6
(dp585
g8
S'_home_rawdata_Envs_venv_lib_python2_7_site-packages_django_contrib_admin_actions.html'
p586
sg10
S'/home/rawdata/Envs/venv/lib/python2.7/site-packages/django/contrib/admin/actions'
p587
sg12
g13
(g14
g15
NtRp588
(dp589
g18
I1
sg19
I0
sg20
I35
sg21
I0
sg22
I0
sg23
I25
sg24
I0
sbssg25
S'\xbc\x95\xa5\x81B\x17\xf9Q\xa2p\x03\xcb\x8f4O\x14'
p590
ssS'_home_rawdata_Envs_venv_lib_python2_7_site-packages_django_core_files_base'
p591
(dp592
g6
(dp593
g8
S'_home_rawdata_Envs_venv_lib_python2_7_site-packages_django_core_files_base.html'
p594
sg10
S'/home/rawdata/Envs/venv/lib/python2.7/site-packages/django/core/files/base'
p595
sg12
g13
(g14
g15
NtRp596
(dp597
g18
I1
sg19
I0
sg20
I105
sg21
I0
sg22
I0
sg23
I70
sg24
I0
sbssg25
S'e\x0e5\xc8\xfa7\x81&\x89\xc6q\xc5\xc06$\x8f'
p598
ssS'apps_questions_migrations_0002_question_owner'
p599
(dp600
g6
(dp601
g8
S'apps_questions_migrations_0002_question_owner.html'
p602
sg10
S'apps/questions/migrations/0002_question_owner'
p603
sg12
g13
(g14
g15
NtRp604
(dp605
g18
I1
sg19
I0
sg20
I6
sg21
I0
sg22
I0
sg23
I0
sg24
I0
sbssg25
S'\x07.\xdcw\x12\xd0\xe9\x9bd+\xb3B:\x19\xc3U'
p606
ssS'_home_rawdata_Envs_venv_lib_python2_7_site-packages_django_template_loader_tags'
p607
(dp608
g6
(dp609
g8
S'_home_rawdata_Envs_venv_lib_python2_7_site-packages_django_template_loader_tags.html'
p610
sg10
S'/home/rawdata/Envs/venv/lib/python2.7/site-packages/django/template/loader_tags'
p611
sg12
g13
(g14
g15
NtRp612
(dp613
g18
I1
sg19
I0
sg20
I153
sg21
I0
sg22
I0
sg23
I120
sg24
I0
sbssg25
S'\xf1\x18\xf2\x03\x1f;\x1f\x9b\x84A\x88\x84z\x9e+^'
p614
ssS'_home_rawdata_Envs_venv_lib_python2_7_site-packages_django_core_files_images'
p615
(dp616
g6
(dp617
g8
S'_home_rawdata_Envs_venv_lib_python2_7_site-packages_django_core_files_images.html'
p618
sg10
S'/home/rawdata/Envs/venv/lib/python2.7/site-packages/django/core/files/images'
p619
sg12
g13
(g14
g15
NtRp620
(dp621
g18
I1
sg19
I0
sg20
I43
sg21
I0
sg22
I0
sg23
I34
sg24
I0
sbssg25
S'\xedy\xf6\x81\xcb\xa7p\x92Y\x83\xa2\x1a{\xb9\x91('
p622
ssS'_home_rawdata_Envs_venv_lib_python2_7_site-packages_django_dispatch_dispatcher'
p623
(dp624
g6
(dp625
g8
S'_home_rawdata_Envs_venv_lib_python2_7_site-packages_django_dispatch_dispatcher.html'
p626
sg10
S'/home/rawdata/Envs/venv/lib/python2.7/site-packages/django/dispatch/dispatcher'
p627
sg12
g13
(g14
g15
NtRp628
(dp629
g18
I1
sg19
I0
sg20
I135
sg21
I0
sg22
I0
sg23
I48
sg24
I0
sbssg25
S'?K&\x92X\xd5\xe9\x0c\x88\xb6\xe9\xf8\xa8\xd3\xbc['
p630
ssS'_home_rawdata_Envs_venv_lib_python2_7_site-packages_selenium_webdriver_opera_webdriver'
p631
(dp632
g6
(dp633
g8
S'_home_rawdata_Envs_venv_lib_python2_7_site-packages_selenium_webdriver_opera_webdriver.html'
p634
sg10
S'/home/rawdata/Envs/venv/lib/python2.7/site-packages/selenium/webdriver/opera/webdriver'
p635
sg12
g13
(g14
g15
NtRp636
(dp637
g18
I1
sg19
I0
sg20
I50
sg21
I0
sg22
I0
sg23
I29
sg24
I0
sbssg25
S'\n\x86H\xf7\xa2N\xa5\xe1d\x99\x8dN\xa5TY~'
p638
ssS'_home_rawdata_Envs_venv_lib_python2_7_site-packages_django_db_migrations_questioner'
p639
(dp640
g6
(dp641
g8
S'_home_rawdata_Envs_venv_lib_python2_7_site-packages_django_db_migrations_questioner.html'
p642
sg10
S'/home/rawdata/Envs/venv/lib/python2.7/site-packages/django/db/migrations/questioner'
p643
sg12
g13
(g14
g15
NtRp644
(dp645
g18
I1
sg19
I0
sg20
I103
sg21
I0
sg22
I0
sg23
I77
sg24
I0
sbssg25
S'1\xd8[z\x12\xce\xce8i\xf0X\t\x87\xaa\xcd\x8d'
p646
ssS'_home_rawdata_Envs_venv_lib_python2_7_site-packages_django_db_models_sql_constants'
p647
(dp648
g6
(dp649
g8
S'_home_rawdata_Envs_venv_lib_python2_7_site-packages_django_db_models_sql_constants.html'
p650
sg10
S'/home/rawdata/Envs/venv/lib/python2.7/site-packages/django/db/models/sql/constants'
p651
sg12
g13
(g14
g15
NtRp652
(dp653
g18
I1
sg19
I0
sg20
I12
sg21
I0
sg22
I0
sg23
I0
sg24
I0
sbssg25
S'\xb7\xc7\xf7\xef\x1f\x9c\xdcb\xab4\xd4\xff\xfbU\x11\xef'
p654
ssS'_home_rawdata_Envs_venv_lib_python2_7_site-packages_crispy_forms_utils'
p655
(dp656
g6
(dp657
g8
S'_home_rawdata_Envs_venv_lib_python2_7_site-packages_crispy_forms_utils.html'
p658
sg10
S'/home/rawdata/Envs/venv/lib/python2.7/site-packages/crispy_forms/utils'
p659
sg12
g13
(g14
g15
NtRp660
(dp661
g18
I1
sg19
I0
sg20
I83
sg21
I0
sg22
I0
sg23
I64
sg24
I0
sbssg25
S'\x84\x87\r\x1a\xbb\xbf\xb8\x8b\x9e\x90\x0fRk\x10.\x13'
p662
ssS'_home_rawdata_Envs_venv_lib_python2_7_site-packages_django_conf___init__'
p663
(dp664
g6
(dp665
g8
S'_home_rawdata_Envs_venv_lib_python2_7_site-packages_django_conf___init__.html'
p666
sg10
S'/home/rawdata/Envs/venv/lib/python2.7/site-packages/django/conf/__init__'
p667
sg12
g13
(g14
g15
NtRp668
(dp669
g18
I1
sg19
I0
sg20
I88
sg21
I0
sg22
I0
sg23
I30
sg24
I0
sbssg25
S'^\xe7\xe2\xc3m?\x91\x88#!4\xfb=\xd0\x993'
p670
ssS'_home_rawdata_Envs_venv_lib_python2_7_site-packages_django_contrib_admin_utils'
p671
(dp672
g6
(dp673
g8
S'_home_rawdata_Envs_venv_lib_python2_7_site-packages_django_contrib_admin_utils.html'
p674
sg10
S'/home/rawdata/Envs/venv/lib/python2.7/site-packages/django/contrib/admin/utils'
p675
sg12
g13
(g14
g15
NtRp676
(dp677
g18
I1
sg19
I0
sg20
I290
sg21
I0
sg22
I0
sg23
I233
sg24
I0
sbssg25
S'\x97\xe5\x1d\x84h\xc6\xfcm\xede0I\xba[xB'
p678
ssS'_home_rawdata_Envs_venv_lib_python2_7_site-packages_django_core_mail___init__'
p679
(dp680
g6
(dp681
g8
S'_home_rawdata_Envs_venv_lib_python2_7_site-packages_django_core_mail___init__.html'
p682
sg10
S'/home/rawdata/Envs/venv/lib/python2.7/site-packages/django/core/mail/__init__'
p683
sg12
g13
(g14
g15
NtRp684
(dp685
g18
I1
sg19
I0
sg20
I33
sg21
I0
sg22
I0
sg23
I22
sg24
I0
sbssg25
S'\x0b\xec~\x01VJ\x10\x14\xe9-\xf8]Y\x16I\xc8'
p686
ssS'_home_rawdata_Envs_venv_lib_python2_7_site-packages_django_contrib_admin_options'
p687
(dp688
g6
(dp689
g8
S'_home_rawdata_Envs_venv_lib_python2_7_site-packages_django_contrib_admin_options.html'
p690
sg10
S'/home/rawdata/Envs/venv/lib/python2.7/site-packages/django/contrib/admin/options'
p691
sg12
g13
(g14
g15
NtRp692
(dp693
g18
I1
sg19
I0
sg20
I961
sg21
I0
sg22
I0
sg23
I743
sg24
I0
sbssg25
S'\x8c\xa3\x00\r\xe2\x10\xf2qj\x99^\x80\xaf\x90\xfez'
p694
ssS'_home_rawdata_Envs_venv_lib_python2_7_site-packages_django_core_checks_messages'
p695
(dp696
g6
(dp697
g8
S'_home_rawdata_Envs_venv_lib_python2_7_site-packages_django_core_checks_messages.html'
p698
sg10
S'/home/rawdata/Envs/venv/lib/python2.7/site-packages/django/core/checks/messages'
p699
sg12
g13
(g14
g15
NtRp700
(dp701
g18
I1
sg19
I0
sg20
I54
sg21
I0
sg22
I0
sg23
I28
sg24
I0
sbssg25
S'\x94NT\x99\xff.\xbf\x1d\x83\xbc\xad\xe4\xec\x91xY'
p702
ssS'_home_rawdata_Envs_venv_lib_python2_7_site-packages_django_core_mail_message'
p703
(dp704
g6
(dp705
g8
S'_home_rawdata_Envs_venv_lib_python2_7_site-packages_django_core_mail_message.html'
p706
sg10
S'/home/rawdata/Envs/venv/lib/python2.7/site-packages/django/core/mail/message'
p707
sg12
g13
(g14
g15
NtRp708
(dp709
g18
I1
sg19
I0
sg20
I242
sg21
I0
sg22
I0
sg23
I182
sg24
I0
sbssg25
S'\xcc\x0c\xe4\xa9\x0cQ\x90\xfe*\xc4\xd4\xfa*$\xfd\xe1'
p710
ssS'_home_rawdata_Envs_venv_lib_python2_7_site-packages_django_db_models___init__'
p711
(dp712
g6
(dp713
g8
S'_home_rawdata_Envs_venv_lib_python2_7_site-packages_django_db_models___init__.html'
p714
sg10
S'/home/rawdata/Envs/venv/lib/python2.7/site-packages/django/db/models/__init__'
p715
sg12
g13
(g14
g15
NtRp716
(dp717
g18
I1
sg19
I0
sg20
I35
sg21
I0
sg22
I0
sg23
I8
sg24
I0
sbssg25
S'(\xa1\xe7\xa29u"9\x9c\xa7\xcbBc\xc9\x90I'
p718
ssS'_home_rawdata_Envs_venv_lib_python2_7_site-packages_selenium_webdriver_firefox_firefox_binary'
p719
(dp720
g6
(dp721
g8
S'_home_rawdata_Envs_venv_lib_python2_7_site-packages_selenium_webdriver_firefox_firefox_binary.html'
p722
sg10
S'/home/rawdata/Envs/venv/lib/python2.7/site-packages/selenium/webdriver/firefox/firefox_binary'
p723
sg12
g13
(g14
g15
NtRp724
(dp725
g18
I1
sg19
I0
sg20
I119
sg21
I0
sg22
I0
sg23
I41
sg24
I0
sbssg25
S'\x86\x04B\x06\xfc\xb8\x1f\xfb`\xf8\\\xe6\xbd\x06\xb1\xd4'
p726
ssS'_home_rawdata_Envs_venv_lib_python2_7_site-packages_django_core_cache_backends_base'
p727
(dp728
g6
(dp729
g8
S'_home_rawdata_Envs_venv_lib_python2_7_site-packages_django_core_cache_backends_base.html'
p730
sg10
S'/home/rawdata/Envs/venv/lib/python2.7/site-packages/django/core/cache/backends/base'
p731
sg12
g13
(g14
g15
NtRp732
(dp733
g18
I1
sg19
I0
sg20
I108
sg21
I0
sg22
I0
sg23
I58
sg24
I0
sbssg25
S'X ^\x1e\x1fd+\x06\x83\x9cs\xfd\x1dgv\xd0'
p734
ssS'_home_rawdata_Envs_venv_lib_python2_7_site-packages_django_utils_importlib'
p735
(dp736
g365
(dp737
g367
S'_home_rawdata_Envs_venv_lib_python2_7_site-packages_django_utils_importlib.html'
p738
sg369
S'/home/rawdata/Envs/venv/lib/python2.7/site-packages/django/utils/importlib'
p739
sg371
g13
(g14
g15
NtRp740
(dp741
g18
I1
sg19
I0
sg20
I29
sg21
I0
sg22
I0
sg23
I21
sg24
I0
sbssg374
S'\xec\xc8\xa6Re\xef\x02p\xa0\x97\x8f=\xfc\xb1\x8b\xca'
p742
ssS'_home_rawdata_Envs_venv_lib_python2_7_site-packages_django_db_models_sql_aggregates'
p743
(dp744
g6
(dp745
g8
S'_home_rawdata_Envs_venv_lib_python2_7_site-packages_django_db_models_sql_aggregates.html'
p746
sg10
S'/home/rawdata/Envs/venv/lib/python2.7/site-packages/django/db/models/sql/aggregates'
p747
sg12
g13
(g14
g15
NtRp748
(dp749
g18
I1
sg19
I0
sg20
I70
sg21
I0
sg22
I0
sg23
I34
sg24
I0
sbssg25
S'8Rb\xb1T\x19\x1f\x0e\xb4\xfd\x1f@\xfd\x15w7'
p750
ssS'apps_questions_models'
p751
(dp752
g6
(dp753
g367
S'apps_questions_models.html'
p754
sg369
S'apps/questions/models'
p755
sg371
g13
(g14
g15
NtRp756
(dp757
g18
I1
sg19
I0
sg20
I14
sg21
I0
sg22
I0
sg23
I2
sg24
I0
sbssg25
S'O\xed\xa7\x9630gh\xe7\xf3J\xe05\xbe2\xff'
p758
ssS'_home_rawdata_Envs_venv_lib_python2_7_site-packages_selenium_webdriver_phantomjs_webdriver'
p759
(dp760
g6
(dp761
g8
S'_home_rawdata_Envs_venv_lib_python2_7_site-packages_selenium_webdriver_phantomjs_webdriver.html'
p762
sg10
S'/home/rawdata/Envs/venv/lib/python2.7/site-packages/selenium/webdriver/phantomjs/webdriver'
p763
sg12
g13
(g14
g15
NtRp764
(dp765
g18
I1
sg19
I0
sg20
I22
sg21
I0
sg22
I0
sg23
I13
sg24
I0
sbssg25
S'\n\xaakO\x7fh,\xa7l\x11\xf9\x07|\xc8\xee\x9f'
p766
ssS'_home_rawdata_Envs_venv_lib_python2_7_site-packages_markdown___version__'
p767
(dp768
g6
(dp769
g8
S'_home_rawdata_Envs_venv_lib_python2_7_site-packages_markdown___version__.html'
p770
sg10
S'/home/rawdata/Envs/venv/lib/python2.7/site-packages/markdown/__version__'
p771
sg12
g13
(g14
g15
NtRp772
(dp773
g18
I1
sg19
I0
sg20
I14
sg21
I0
sg22
I0
sg23
I3
sg24
I0
sbssg25
S'h\x11\x1f9c\xb9\x9eL\x85\x16\xe8F\xa8&\x8a\x7f'
p774
ssS'_home_rawdata_Envs_venv_lib_python2_7_site-packages_django_forms___init__'
p775
(dp776
g6
(dp777
g8
S'_home_rawdata_Envs_venv_lib_python2_7_site-packages_django_forms___init__.html'
p778
sg10
S'/home/rawdata/Envs/venv/lib/python2.7/site-packages/django/forms/__init__'
p779
sg12
g13
(g14
g15
NtRp780
(dp781
g18
I1
sg19
I0
sg20
I6
sg21
I0
sg22
I0
sg23
I0
sg24
I0
sbssg25
S'\xcf\x89\xf0\x10F\x0f#(jw\xcd\xab\x9bs\x14\x84'
p782
ssS'_home_rawdata_Envs_venv_lib_python2_7_site-packages_django_contrib_contenttypes_fields'
p783
(dp784
g6
(dp785
g8
S'_home_rawdata_Envs_venv_lib_python2_7_site-packages_django_contrib_contenttypes_fields.html'
p786
sg10
S'/home/rawdata/Envs/venv/lib/python2.7/site-packages/django/contrib/contenttypes/fields'
p787
sg12
g13
(g14
g15
NtRp788
(dp789
g18
I1
sg19
I0
sg20
I292
sg21
I0
sg22
I0
sg23
I238
sg24
I0
sbssg25
S'r\x1d\x97\rx\xc1\xe2\x06)f\xf8&\x84\xbc9\xdb'
p790
ssS'_home_rawdata_Envs_venv_lib_python2_7_site-packages_django_core_checks_compatibility_django_1_7_0'
p791
(dp792
g6
(dp793
g8
S'_home_rawdata_Envs_venv_lib_python2_7_site-packages_django_core_checks_compatibility_django_1_7_0.html'
p794
sg10
S'/home/rawdata/Envs/venv/lib/python2.7/site-packages/django/core/checks/compatibility/django_1_7_0'
p795
sg12
g13
(g14
g15
NtRp796
(dp797
g18
I1
sg19
I0
sg20
I11
sg21
I0
sg22
I0
sg23
I1
sg24
I0
sbssg25
S'\xd9l\xc5c.\x1f\x83\xe1\xd4\xbd\x04}86\x8aJ'
p798
ssS'_home_rawdata_Envs_venv_lib_python2_7_site-packages_django_core_management___init__'
p799
(dp800
g6
(dp801
g8
S'_home_rawdata_Envs_venv_lib_python2_7_site-packages_django_core_management___init__.html'
p802
sg10
S'/home/rawdata/Envs/venv/lib/python2.7/site-packages/django/core/management/__init__'
p803
sg12
g13
(g14
g15
NtRp804
(dp805
g18
I1
sg19
I0
sg20
I173
sg21
I0
sg22
I0
sg23
I79
sg24
I0
sbssg25
S'!\xc4Gw\x8b\xb0j\x94H\xfa\x12\x05$\xe7r\xe7'
p806
ssS'_home_rawdata_Envs_venv_lib_python2_7_site-packages_selenium_common_exceptions'
p807
(dp808
g6
(dp809
g367
S'_home_rawdata_Envs_venv_lib_python2_7_site-packages_selenium_common_exceptions.html'
p810
sg369
S'/home/rawdata/Envs/venv/lib/python2.7/site-packages/selenium/common/exceptions'
p811
sg371
g13
(g14
g15
NtRp812
(dp813
g18
I1
sg19
I0
sg20
I62
sg21
I0
sg22
I0
sg23
I6
sg24
I0
sbssg25
S'\xbbu\xa8K\x80M\xc2\x97\x14\x7f\x91p\x15\x0c\x8aq'
p814
ssS'_home_rawdata_Envs_venv_lib_python2_7_site-packages_django_contrib_admin_models'
p815
(dp816
g6
(dp817
g8
S'_home_rawdata_Envs_venv_lib_python2_7_site-packages_django_contrib_admin_models.html'
p818
sg10
S'/home/rawdata/Envs/venv/lib/python2.7/site-packages/django/contrib/admin/models'
p819
sg12
g13
(g14
g15
NtRp820
(dp821
g18
I1
sg19
I0
sg20
I57
sg21
I0
sg22
I0
sg23
I21
sg24
I0
sbssg25
S'\x1c\xa0_A\xc9\xe0M\xd8\x10\xaa\x83~\xf2o\x99j'
p822
ssS'_home_rawdata_Envs_venv_lib_python2_7_site-packages_crispy_forms_base'
p823
(dp824
g6
(dp825
g8
S'_home_rawdata_Envs_venv_lib_python2_7_site-packages_crispy_forms_base.html'
p826
sg10
S'/home/rawdata/Envs/venv/lib/python2.7/site-packages/crispy_forms/base'
p827
sg12
g13
(g14
g15
NtRp828
(dp829
g18
I1
sg19
I0
sg20
I21
sg21
I0
sg22
I0
sg23
I15
sg24
I0
sbssg25
S'0\xc3\x0eU \xec%\x8cS\xcbQ\xdd\xeaE.W'
p830
ssS'_home_rawdata_Envs_venv_lib_python2_7_site-packages_django_contrib_sessions_backends_db'
p831
(dp832
g6
(dp833
g8
S'_home_rawdata_Envs_venv_lib_python2_7_site-packages_django_contrib_sessions_backends_db.html'
p834
sg10
S'/home/rawdata/Envs/venv/lib/python2.7/site-packages/django/contrib/sessions/backends/db'
p835
sg12
g13
(g14
g15
NtRp836
(dp837
g18
I1
sg19
I0
sg20
I53
sg21
I0
sg22
I0
sg23
I38
sg24
I0
sbssg25
S'X\x1eS*m\xe0,\xfc\xd0\xd2\xb5\xdc\xcffo\xa3'
p838
ssS'_home_rawdata_Envs_venv_lib_python2_7_site-packages_django_core_exceptions'
p839
(dp840
g6
(dp841
g8
S'_home_rawdata_Envs_venv_lib_python2_7_site-packages_django_core_exceptions.html'
p842
sg10
S'/home/rawdata/Envs/venv/lib/python2.7/site-packages/django/core/exceptions'
p843
sg12
g13
(g14
g15
NtRp844
(dp845
g18
I1
sg19
I0
sg20
I87
sg21
I0
sg22
I0
sg23
I47
sg24
I0
sbssg25
S'C\x03u\xd6K\x1c\x9d\x1f\xc40q\xc9\xe2\xf4\x1c?'
p846
ssS'_home_rawdata_Envs_venv_lib_python2_7_site-packages_django_views___init__'
p847
(dp848
g6
(dp849
g8
S'_home_rawdata_Envs_venv_lib_python2_7_site-packages_django_views___init__.html'
p850
sg10
S'/home/rawdata/Envs/venv/lib/python2.7/site-packages/django/views/__init__'
p851
sg12
g13
(g14
g15
NtRp852
(dp853
g18
I1
sg19
I0
sg20
I0
sg21
I0
sg22
I0
sg23
I0
sg24
I0
sbssg25
S'\xb0\xc8pN\xaf>\xa0\xbaz\x144\xe0A9\xb8?'
p854
ssS'_home_rawdata_Envs_venv_lib_python2_7_site-packages_django_contrib_admin_helpers'
p855
(dp856
g6
(dp857
g8
S'_home_rawdata_Envs_venv_lib_python2_7_site-packages_django_contrib_admin_helpers.html'
p858
sg10
S'/home/rawdata/Envs/venv/lib/python2.7/site-packages/django/contrib/admin/helpers'
p859
sg12
g13
(g14
g15
NtRp860
(dp861
g18
I1
sg19
I0
sg20
I229
sg21
I0
sg22
I0
sg23
I168
sg24
I0
sbssg25
S'@\x98\xaa\x951\xaak\xb8\xe4\x8bM2\x84\x87x\x9e'
p862
ssS'_home_rawdata_Envs_venv_lib_python2_7_site-packages_django_db_models_options'
p863
(dp864
g6
(dp865
g8
S'_home_rawdata_Envs_venv_lib_python2_7_site-packages_django_db_models_options.html'
p866
sg10
S'/home/rawdata/Envs/venv/lib/python2.7/site-packages/django/db/models/options'
p867
sg12
g13
(g14
g15
NtRp868
(dp869
g18
I1
sg19
I0
sg20
I373
sg21
I0
sg22
I0
sg23
I99
sg24
I0
sbssg25
S'\\\xd8\x83\x92\x91\xd8pE\xb6_\xfbpO\x89\x0es'
p870
ssS'apps_exams_migrations_0003_test_status'
p871
(dp872
g6
(dp873
g8
S'apps_exams_migrations_0003_test_status.html'
p874
sg10
S'apps/exams/migrations/0003_test_status'
p875
sg12
g13
(g14
g15
NtRp876
(dp877
g18
I1
sg19
I0
sg20
I5
sg21
I0
sg22
I0
sg23
I0
sg24
I0
sbssg25
S'zXE\xf2\xdbi\xee\xa2\xfa\xa7\xbe!\x92/\x82\x85'
p878
ssS'_home_rawdata_Envs_venv_lib_python2_7_site-packages_django_utils_crypto'
p879
(dp880
g6
(dp881
g8
S'_home_rawdata_Envs_venv_lib_python2_7_site-packages_django_utils_crypto.html'
p882
sg10
S'/home/rawdata/Envs/venv/lib/python2.7/site-packages/django/utils/crypto'
p883
sg12
g13
(g14
g15
NtRp884
(dp885
g18
I1
sg19
I0
sg20
I75
sg21
I0
sg22
I0
sg23
I55
sg24
I0
sbssg25
S'\xa0\xea\xc2\xb3\xb0\xc4aq\x83\xe8\x00\x8a\xf0a#\x93'
p886
ssS'_home_rawdata_Envs_venv_lib_python2_7_site-packages_django_utils_decorators'
p887
(dp888
g6
(dp889
g8
S'_home_rawdata_Envs_venv_lib_python2_7_site-packages_django_utils_decorators.html'
p890
sg10
S'/home/rawdata/Envs/venv/lib/python2.7/site-packages/django/utils/decorators'
p891
sg12
g13
(g14
g15
NtRp892
(dp893
g18
I1
sg19
I0
sg20
I64
sg21
I0
sg22
I0
sg23
I35
sg24
I0
sbssg25
S'^XsP\xcf&\x05Z\xe2\x89\x15m\\sP,'
p894
ssS'apps_questions_migrations_0003_remove_question_owner'
p895
(dp896
g365
(dp897
g367
S'apps_questions_migrations_0003_remove_question_owner.html'
p898
sg369
S'apps/questions/migrations/0003_remove_question_owner'
p899
sg371
g13
(g14
g15
NtRp900
(dp901
g18
I1
sg19
I0
sg20
I5
sg21
I0
sg22
I0
sg23
I0
sg24
I0
sbssg374
S'\x13\x8b\xc0s\xbc\xa5G\xe8\x98n\xbek\x14=\nU'
p902
ssS'_home_rawdata_Envs_venv_lib_python2_7_site-packages_django_utils_deprecation'
p903
(dp904
g6
(dp905
g8
S'_home_rawdata_Envs_venv_lib_python2_7_site-packages_django_utils_deprecation.html'
p906
sg10
S'/home/rawdata/Envs/venv/lib/python2.7/site-packages/django/utils/deprecation'
p907
sg12
g13
(g14
g15
NtRp908
(dp909
g18
I1
sg19
I0
sg20
I38
sg21
I0
sg22
I0
sg23
I5
sg24
I0
sbssg25
S'\x12\xcd&\r%\xd7\xed\xc7.\\&\xc5\xd5\xd9`\xc4'
p910
ssS'_home_rawdata_Envs_venv_lib_python2_7_site-packages_crispy_forms_layout_slice'
p911
(dp912
g6
(dp913
g8
S'_home_rawdata_Envs_venv_lib_python2_7_site-packages_crispy_forms_layout_slice.html'
p914
sg10
S'/home/rawdata/Envs/venv/lib/python2.7/site-packages/crispy_forms/layout_slice'
p915
sg12
g13
(g14
g15
NtRp916
(dp917
g18
I1
sg19
I0
sg20
I76
sg21
I0
sg22
I0
sg23
I62
sg24
I0
sbssg25
S'\xa0]B\xf2\xc2\x10\x95p\xcc"\xe1\xd6\xf4\xed\x92\xc8'
p918
ssS'_home_rawdata_Envs_venv_lib_python2_7_site-packages_django_db_models_loading'
p919
(dp920
g365
(dp921
g367
S'_home_rawdata_Envs_venv_lib_python2_7_site-packages_django_db_models_loading.html'
p922
sg369
S'/home/rawdata/Envs/venv/lib/python2.7/site-packages/django/db/models/loading'
p923
sg371
g13
(g14
g15
NtRp924
(dp925
g18
I1
sg19
I0
sg20
I23
sg21
I0
sg22
I0
sg23
I5
sg24
I0
sbssg374
S'\xf4|\x85A\xe0@\xe8\x0f\xeb_\x83><}\xe6\xff'
p926
ssS'_home_rawdata_Envs_venv_lib_python2_7_site-packages_django_db_backends_schema'
p927
(dp928
g6
(dp929
g8
S'_home_rawdata_Envs_venv_lib_python2_7_site-packages_django_db_backends_schema.html'
p930
sg10
S'/home/rawdata/Envs/venv/lib/python2.7/site-packages/django/db/backends/schema'
p931
sg12
g13
(g14
g15
NtRp932
(dp933
g18
I1
sg19
I0
sg20
I406
sg21
I0
sg22
I0
sg23
I243
sg24
I0
sbssg25
S'ZI\x9f\x04[\x04\x8b@\xba\xf71\xf5\x03\xfe\x8c\xc0'
p934
ssS'_home_rawdata_Envs_venv_lib_python2_7_site-packages_django_contrib_admin_migrations_0001_initial'
p935
(dp936
g6
(dp937
g8
S'_home_rawdata_Envs_venv_lib_python2_7_site-packages_django_contrib_admin_migrations_0001_initial.html'
p938
sg10
S'/home/rawdata/Envs/venv/lib/python2.7/site-packages/django/contrib/admin/migrations/0001_initial'
p939
sg12
g13
(g14
g15
NtRp940
(dp941
g18
I1
sg19
I0
sg20
I6
sg21
I0
sg22
I0
sg23
I0
sg24
I0
sbssg25
S'ZC\x06\xbd\x8c\x9a\xd7\xbf\xb4(M\xcc\xc59\xbaH'
p942
ssS'_home_rawdata_Envs_venv_lib_python2_7_site-packages_django_core_handlers_wsgi'
p943
(dp944
g6
(dp945
g8
S'_home_rawdata_Envs_venv_lib_python2_7_site-packages_django_core_handlers_wsgi.html'
p946
sg10
S'/home/rawdata/Envs/venv/lib/python2.7/site-packages/django/core/handlers/wsgi'
p947
sg12
g13
(g14
g15
NtRp948
(dp949
g18
I1
sg19
I0
sg20
I160
sg21
I0
sg22
I0
sg23
I114
sg24
I0
sbssg25
S'\xa7.\x9d\xb6\xd6\x8e\xf2\xea\xc5\x8c\xbaj\xf8r*\xcf'
p950
ssS'_home_rawdata_Envs_venv_lib_python2_7_site-packages_django_forms_fields'
p951
(dp952
g6
(dp953
g8
S'_home_rawdata_Envs_venv_lib_python2_7_site-packages_django_forms_fields.html'
p954
sg10
S'/home/rawdata/Envs/venv/lib/python2.7/site-packages/django/forms/fields'
p955
sg12
g13
(g14
g15
NtRp956
(dp957
g18
I1
sg19
I0
sg20
I676
sg21
I0
sg22
I0
sg23
I455
sg24
I0
sbssg25
S'\xba9ER\xdcH\x86\xd1\x00\xc1\x1b\x13\x82\x9a\xc3\xdf'
p958
ssS'_home_rawdata_Envs_venv_lib_python2_7_site-packages_django_contrib_sessions_models'
p959
(dp960
g6
(dp961
g8
S'_home_rawdata_Envs_venv_lib_python2_7_site-packages_django_contrib_sessions_models.html'
p962
sg10
S'/home/rawdata/Envs/venv/lib/python2.7/site-packages/django/contrib/sessions/models'
p963
sg12
g13
(g14
g15
NtRp964
(dp965
g18
I1
sg19
I0
sg20
I24
sg21
I0
sg22
I0
sg23
I7
sg24
I0
sbssg25
S' 56(\x10\x18\xb4l\xd5\xc1\xf5\x14\xf7\xcb.}'
p966
ssS'_home_rawdata_Envs_venv_lib_python2_7_site-packages_django_contrib_sessions_exceptions'
p967
(dp968
g6
(dp969
g8
S'_home_rawdata_Envs_venv_lib_python2_7_site-packages_django_contrib_sessions_exceptions.html'
p970
sg10
S'/home/rawdata/Envs/venv/lib/python2.7/site-packages/django/contrib/sessions/exceptions'
p971
sg12
g13
(g14
g15
NtRp972
(dp973
g18
I1
sg19
I0
sg20
I5
sg21
I0
sg22
I0
sg23
I0
sg24
I0
sbssg25
S'\xb5o\x11z\x9e\x87\xc6\tc\xa3\xf8C\x84\xa9"Y'
p974
ssS'_home_rawdata_Envs_venv_lib_python2_7_site-packages_crispy_forms_compatibility'
p975
(dp976
g6
(dp977
g8
S'_home_rawdata_Envs_venv_lib_python2_7_site-packages_crispy_forms_compatibility.html'
p978
sg10
S'/home/rawdata/Envs/venv/lib/python2.7/site-packages/crispy_forms/compatibility'
p979
sg12
g13
(g14
g15
NtRp980
(dp981
g18
I1
sg19
I0
sg20
I11
sg21
I0
sg22
I0
sg23
I4
sg24
I0
sbssg25
S'\x13\x19\xffL\x93\x96\xe6\x0c#~Xu\xb5w6\xb8'
p982
ssS'_home_rawdata_Envs_venv_lib_python2_7_site-packages_rest_framework_settings'
p983
(dp984
g6
(dp985
g8
S'_home_rawdata_Envs_venv_lib_python2_7_site-packages_rest_framework_settings.html'
p986
sg10
S'/home/rawdata/Envs/venv/lib/python2.7/site-packages/rest_framework/settings'
p987
sg12
g13
(g14
g15
NtRp988
(dp989
g18
I1
sg19
I0
sg20
I48
sg21
I0
sg22
I0
sg23
I10
sg24
I0
sbssg25
S'\xf85&\xfd\xb6\xbd\x99.\xbe\t\xee^qL\xafc'
p990
ssS'_home_rawdata_Envs_venv_lib_python2_7_site-packages_django_core_management_commands_createcachetable'
p991
(dp992
g6
(dp993
g8
S'_home_rawdata_Envs_venv_lib_python2_7_site-packages_django_core_management_commands_createcachetable.html'
p994
sg10
S'/home/rawdata/Envs/venv/lib/python2.7/site-packages/django/core/management/commands/createcachetable'
p995
sg12
g13
(g14
g15
NtRp996
(dp997
g18
I1
sg19
I0
sg20
I60
sg21
I0
sg22
I0
sg23
I40
sg24
I0
sbssg25
S'k\tK\x93\x11Z#\xa7\xcf\x84\xd7\xba6\xa5$\xa6'
p998
ssS'_home_rawdata_Envs_venv_lib_python2_7_site-packages_django_core_management_base'
p999
(dp1000
g6
(dp1001
g367
S'_home_rawdata_Envs_venv_lib_python2_7_site-packages_django_core_management_base.html'
p1002
sg369
S'/home/rawdata/Envs/venv/lib/python2.7/site-packages/django/core/management/base'
p1003
sg371
g13
(g14
g15
NtRp1004
(dp1005
g18
I1
sg19
I0
sg20
I187
sg21
I0
sg22
I0
sg23
I82
sg24
I0
sbssg25
S'*\x13\xfe\xc2s\x8b\xc9\xe9r\x9a\xdd\x88~fk\xf9'
p1006
ssS'_home_rawdata_Envs_venv_lib_python2_7_site-packages_django_forms_models'
p1007
(dp1008
g6
(dp1009
g8
S'_home_rawdata_Envs_venv_lib_python2_7_site-packages_django_forms_models.html'
p1010
sg10
S'/home/rawdata/Envs/venv/lib/python2.7/site-packages/django/forms/models'
p1011
sg12
g13
(g14
g15
NtRp1012
(dp1013
g18
I1
sg19
I0
sg20
I666
sg21
I0
sg22
I0
sg23
I484
sg24
I0
sbssg25
S'\x8bpJ\xd0\x0c&{\x91\xe2\xa4\xf3S\xed\xf3\xcc\xb9'
p1014
ssS'apps_api_tests'
p1015
(dp1016
g6
(dp1017
g8
S'apps_api_tests.html'
p1018
sg10
S'apps/api/tests'
p1019
sg12
g13
(g14
g15
NtRp1020
(dp1021
g18
I1
sg19
I0
sg20
I1
sg21
I0
sg22
I0
sg23
I0
sg24
I0
sbssg25
S'\x97e\xc4\xf4\xb6\x04\xfd<\xae\xb2Y\x0e\xa0+\xf2\xcc'
p1022
ssS'_home_rawdata_Envs_venv_lib_python2_7_site-packages_django_db_migrations_operations___init__'
p1023
(dp1024
g6
(dp1025
g8
S'_home_rawdata_Envs_venv_lib_python2_7_site-packages_django_db_migrations_operations___init__.html'
p1026
sg10
S'/home/rawdata/Envs/venv/lib/python2.7/site-packages/django/db/migrations/operations/__init__'
p1027
sg12
g13
(g14
g15
NtRp1028
(dp1029
g18
I1
sg19
I0
sg20
I4
sg21
I0
sg22
I0
sg23
I0
sg24
I0
sbssg25
S'6\xa8\x95\xafQ2\xfc\x9aQ\xf9q\xe9G\xd8\xf2\xdb'
p1030
ssS'_home_rawdata_Envs_venv_lib_python2_7_site-packages_django_conf_global_settings'
p1031
(dp1032
g6
(dp1033
g8
S'_home_rawdata_Envs_venv_lib_python2_7_site-packages_django_conf_global_settings.html'
p1034
sg10
S'/home/rawdata/Envs/venv/lib/python2.7/site-packages/django/conf/global_settings'
p1035
sg12
g13
(g14
g15
NtRp1036
(dp1037
g18
I1
sg19
I0
sg20
I130
sg21
I0
sg22
I0
sg23
I0
sg24
I0
sbssg25
S'J\xc2\xf1\xd7w\xb92\x9eM\xb7E\xcd\xcdq\xe2\xe2'
p1038
ssS'_home_rawdata_Envs_venv_lib_python2_7_site-packages_django_contrib_sites___init__'
p1039
(dp1040
g6
(dp1041
g8
S'_home_rawdata_Envs_venv_lib_python2_7_site-packages_django_contrib_sites___init__.html'
p1042
sg10
S'/home/rawdata/Envs/venv/lib/python2.7/site-packages/django/contrib/sites/__init__'
p1043
sg12
g13
(g14
g15
NtRp1044
(dp1045
g18
I1
sg19
I0
sg20
I1
sg21
I0
sg22
I0
sg23
I0
sg24
I0
sbssg25
S'\x93\xb7\xc1\xce{;\x9a\xad\x93U\x0cm\xf2\xbc\xd0v'
p1046
ssS'_home_rawdata_Envs_venv_lib_python2_7_site-packages_django_apps___init__'
p1047
(dp1048
g6
(dp1049
g8
S'_home_rawdata_Envs_venv_lib_python2_7_site-packages_django_apps___init__.html'
p1050
sg10
S'/home/rawdata/Envs/venv/lib/python2.7/site-packages/django/apps/__init__'
p1051
sg12
g13
(g14
g15
NtRp1052
(dp1053
g18
I1
sg19
I0
sg20
I2
sg21
I0
sg22
I0
sg23
I0
sg24
I0
sbssg25
S'\x0c%\xf7&\xe8\xc2\xf7\xc3\xbe\xae,\xc0\xc1?\x18g'
p1054
ssS'_home_rawdata_Envs_venv_lib_python2_7_site-packages_django_filters___init__'
p1055
(dp1056
g6
(dp1057
g8
S'_home_rawdata_Envs_venv_lib_python2_7_site-packages_django_filters___init__.html'
p1058
sg10
S'/home/rawdata/Envs/venv/lib/python2.7/site-packages/django_filters/__init__'
p1059
sg12
g13
(g14
g15
NtRp1060
(dp1061
g18
I1
sg19
I0
sg20
I14
sg21
I0
sg22
I0
sg23
I1
sg24
I0
sbssg25
S'\xff\xbf\xc1f1\xa8\xf7\xee\n\x13\n\x8f~\x91\xf14'
p1062
ssS'_home_rawdata_Envs_venv_lib_python2_7_site-packages_django_views_decorators___init__'
p1063
(dp1064
g6
(dp1065
g8
S'_home_rawdata_Envs_venv_lib_python2_7_site-packages_django_views_decorators___init__.html'
p1066
sg10
S'/home/rawdata/Envs/venv/lib/python2.7/site-packages/django/views/decorators/__init__'
p1067
sg12
g13
(g14
g15
NtRp1068
(dp1069
g18
I1
sg19
I0
sg20
I0
sg21
I0
sg22
I0
sg23
I0
sg24
I0
sbssg25
S'\xb0\xc8pN\xaf>\xa0\xbaz\x144\xe0A9\xb8?'
p1070
ssS'_home_rawdata_Envs_venv_lib_python2_7_site-packages_rest_framework_utils_html'
p1071
(dp1072
g6
(dp1073
g8
S'_home_rawdata_Envs_venv_lib_python2_7_site-packages_rest_framework_utils_html.html'
p1074
sg10
S'/home/rawdata/Envs/venv/lib/python2.7/site-packages/rest_framework/utils/html'
p1075
sg12
g13
(g14
g15
NtRp1076
(dp1077
g18
I1
sg19
I0
sg20
I29
sg21
I0
sg22
I0
sg23
I24
sg24
I0
sbssg25
S"D#g\x15\xb4\xe7\x07\xfd\xb6\xae\xf9'\xe0eRq"
p1078
ssS'_home_rawdata_Envs_venv_lib_python2_7_site-packages_django_core_checks_model_checks'
p1079
(dp1080
g6
(dp1081
g8
S'_home_rawdata_Envs_venv_lib_python2_7_site-packages_django_core_checks_model_checks.html'
p1082
sg10
S'/home/rawdata/Envs/venv/lib/python2.7/site-packages/django/core/checks/model_checks'
p1083
sg12
g13
(g14
g15
NtRp1084
(dp1085
g18
I1
sg19
I0
sg20
I28
sg21
I0
sg22
I0
sg23
I6
sg24
I0
sbssg25
S"O\xbd\xc7'\xc3\taD\xe2.\x7f\xef\x16kH\xd6"
p1086
ssS'_home_rawdata_Envs_venv_lib_python2_7_site-packages_django_db___init__'
p1087
(dp1088
g6
(dp1089
g8
S'_home_rawdata_Envs_venv_lib_python2_7_site-packages_django_db___init__.html'
p1090
sg10
S'/home/rawdata/Envs/venv/lib/python2.7/site-packages/django/db/__init__'
p1091
sg12
g13
(g14
g15
NtRp1092
(dp1093
g18
I1
sg19
I0
sg20
I50
sg21
I0
sg22
I0
sg23
I22
sg24
I0
sbssg25
S'1\xc9\x02\xbd\xa4\x9b\x81\xa1\xdc\x8d\x9a\x8e\x1d\xecd\xdc'
p1094
ssS'apps_accounts_views'
p1095
(dp1096
g6
(dp1097
g8
S'apps_accounts_views.html'
p1098
sg10
S'apps/accounts/views'
p1099
sg12
g13
(g14
g15
NtRp1100
(dp1101
g18
I1
sg19
I0
sg20
I25
sg21
I0
sg22
I0
sg23
I12
sg24
I0
sbssg25
S'\x04\xa7\x8fn\xeb3\xf6\x1fE\x10\xb9\x14\xff\xbcv\x9c'
p1102
ssS'_home_rawdata_Envs_venv_lib_python2_7_site-packages_selenium_webdriver_firefox_firefox_profile'
p1103
(dp1104
g6
(dp1105
g8
S'_home_rawdata_Envs_venv_lib_python2_7_site-packages_selenium_webdriver_firefox_firefox_profile.html'
p1106
sg10
S'/home/rawdata/Envs/venv/lib/python2.7/site-packages/selenium/webdriver/firefox/firefox_profile'
p1107
sg12
g13
(g14
g15
NtRp1108
(dp1109
g18
I1
sg19
I0
sg20
I218
sg21
I0
sg22
I0
sg23
I81
sg24
I0
sbssg25
S'h\x1b3Rm\x15\x92\xf1w\xf8\x08\xfc\xbc\xa3\x97\xdb'
p1110
ssS'_home_rawdata_Envs_venv_lib_python2_7_site-packages_django_core_management_commands_loaddata'
p1111
(dp1112
g6
(dp1113
g8
S'_home_rawdata_Envs_venv_lib_python2_7_site-packages_django_core_management_commands_loaddata.html'
p1114
sg10
S'/home/rawdata/Envs/venv/lib/python2.7/site-packages/django/core/management/commands/loaddata'
p1115
sg12
g13
(g14
g15
NtRp1116
(dp1117
g18
I1
sg19
I0
sg20
I173
sg21
I0
sg22
I0
sg23
I69
sg24
I0
sbssg25
S'\x8f\xb9\xeb\xc5\xa38t\x7f\xd1BD|s\xb2\x98\x80'
p1118
ssS'_home_rawdata_Envs_venv_lib_python2_7_site-packages_django_core_handlers___init__'
p1119
(dp1120
g6
(dp1121
g8
S'_home_rawdata_Envs_venv_lib_python2_7_site-packages_django_core_handlers___init__.html'
p1122
sg10
S'/home/rawdata/Envs/venv/lib/python2.7/site-packages/django/core/handlers/__init__'
p1123
sg12
g13
(g14
g15
NtRp1124
(dp1125
g18
I1
sg19
I0
sg20
I0
sg21
I0
sg22
I0
sg23
I0
sg24
I0
sbssg25
S'\xb0\xc8pN\xaf>\xa0\xbaz\x144\xe0A9\xb8?'
p1126
ssS'_home_rawdata_Envs_venv_lib_python2_7_site-packages_rest_framework_renderers'
p1127
(dp1128
g6
(dp1129
g8
S'_home_rawdata_Envs_venv_lib_python2_7_site-packages_rest_framework_renderers.html'
p1130
sg10
S'/home/rawdata/Envs/venv/lib/python2.7/site-packages/rest_framework/renderers'
p1131
sg12
g13
(g14
g15
NtRp1132
(dp1133
g18
I1
sg19
I0
sg20
I305
sg21
I0
sg22
I0
sg23
I223
sg24
I0
sbssg25
S'\xc9.rW\x08\xe2\x19)\x19kB\xaf\xd1\x85\xc4\xaf'
p1134
ssS'_home_rawdata_Envs_venv_lib_python2_7_site-packages_django_views_decorators_csrf'
p1135
(dp1136
g6
(dp1137
g8
S'_home_rawdata_Envs_venv_lib_python2_7_site-packages_django_views_decorators_csrf.html'
p1138
sg10
S'/home/rawdata/Envs/venv/lib/python2.7/site-packages/django/views/decorators/csrf'
p1139
sg12
g13
(g14
g15
NtRp1140
(dp1141
g18
I1
sg19
I0
sg20
I27
sg21
I0
sg22
I0
sg23
I6
sg24
I0
sbssg25
S'\x0e\x8b\xdd\xda{\xd1D\x85\xdeN4M\x0b\xa3\xc3\x08'
p1142
ssS'apps_exams_forms'
p1143
(dp1144
g6
(dp1145
g8
S'apps_exams_forms.html'
p1146
sg10
S'apps/exams/forms'
p1147
sg12
g13
(g14
g15
NtRp1148
(dp1149
g18
I1
sg19
I0
sg20
I18
sg21
I0
sg22
I0
sg23
I2
sg24
I0
sbssg25
S'\xcfJF;\xcc\x01\x9d\x8a\xb3\xd9\xc1\x92h\xfb\xfb\xea'
p1150
ssS'_home_rawdata_Envs_venv_lib_python2_7_site-packages_selenium_webdriver_firefox_extension_connection'
p1151
(dp1152
g6
(dp1153
g8
S'_home_rawdata_Envs_venv_lib_python2_7_site-packages_selenium_webdriver_firefox_extension_connection.html'
p1154
sg10
S'/home/rawdata/Envs/venv/lib/python2.7/site-packages/selenium/webdriver/firefox/extension_connection'
p1155
sg12
g13
(g14
g15
NtRp1156
(dp1157
g18
I1
sg19
I0
sg20
I40
sg21
I0
sg22
I0
sg23
I9
sg24
I0
sbssg25
S'5\xc6\xe8\xdc\x99\x01\xa1r\xc4\xd5\xde\x94\xa4$2\x10'
p1158
ssS'_home_rawdata_Envs_venv_lib_python2_7_site-packages_selenium_webdriver_ie_service'
p1159
(dp1160
g6
(dp1161
g8
S'_home_rawdata_Envs_venv_lib_python2_7_site-packages_selenium_webdriver_ie_service.html'
p1162
sg10
S'/home/rawdata/Envs/venv/lib/python2.7/site-packages/selenium/webdriver/ie/service'
p1163
sg12
g13
(g14
g15
NtRp1164
(dp1165
g18
I1
sg19
I0
sg20
I54
sg21
I0
sg22
I0
sg23
I45
sg24
I0
sbssg25
S"\xdf\x99\xb11'\xb2/\xea][\x1bw}\x90a<"
p1166
ssS'_home_rawdata_Envs_venv_lib_python2_7_site-packages_django_core_files_move'
p1167
(dp1168
g6
(dp1169
g8
S'_home_rawdata_Envs_venv_lib_python2_7_site-packages_django_core_files_move.html'
p1170
sg10
S'/home/rawdata/Envs/venv/lib/python2.7/site-packages/django/core/files/move'
p1171
sg12
g13
(g14
g15
NtRp1172
(dp1173
g18
I1
sg19
I0
sg20
I47
sg21
I0
sg22
I0
sg23
I40
sg24
I0
sbssg25
S"\xc7'\x0c \x9acO\x9dkd\x13\xb9\x01a\xa4."
p1174
ssS'_home_rawdata_Envs_venv_lib_python2_7_site-packages_django_template_loaders___init__'
p1175
(dp1176
g6
(dp1177
g8
S'_home_rawdata_Envs_venv_lib_python2_7_site-packages_django_template_loaders___init__.html'
p1178
sg10
S'/home/rawdata/Envs/venv/lib/python2.7/site-packages/django/template/loaders/__init__'
p1179
sg12
g13
(g14
g15
NtRp1180
(dp1181
g18
I1
sg19
I0
sg20
I0
sg21
I0
sg22
I0
sg23
I0
sg24
I0
sbssg25
S'\xb0\xc8pN\xaf>\xa0\xbaz\x144\xe0A9\xb8?'
p1182
ssS'_home_rawdata_Envs_venv_lib_python2_7_site-packages_django_template_loader'
p1183
(dp1184
g6
(dp1185
g8
S'_home_rawdata_Envs_venv_lib_python2_7_site-packages_django_template_loader.html'
p1186
sg10
S'/home/rawdata/Envs/venv/lib/python2.7/site-packages/django/template/loader'
p1187
sg12
g13
(g14
g15
NtRp1188
(dp1189
g18
I1
sg19
I0
sg20
I95
sg21
I0
sg22
I0
sg23
I72
sg24
I0
sbssg25
S'\xff\xb8\xd5f\xad\xa8\xbc3TU\x1f)9\xd1>\xb8'
p1190
ssS'_home_rawdata_Envs_venv_lib_python2_7_site-packages_django_utils_html'
p1191
(dp1192
g6
(dp1193
g8
S'_home_rawdata_Envs_venv_lib_python2_7_site-packages_django_utils_html.html'
p1194
sg10
S'/home/rawdata/Envs/venv/lib/python2.7/site-packages/django/utils/html'
p1195
sg12
g13
(g14
g15
NtRp1196
(dp1197
g18
I1
sg19
I0
sg20
I186
sg21
I0
sg22
I0
sg23
I129
sg24
I0
sbssg25
S'\x03\x87s\x128R\x0e#\xda\t-s\x97\x0e\xc8\xe0'
p1198
ssS'_home_rawdata_Envs_venv_lib_python2_7_site-packages_django_core_files_temp'
p1199
(dp1200
g6
(dp1201
g8
S'_home_rawdata_Envs_venv_lib_python2_7_site-packages_django_core_files_temp.html'
p1202
sg10
S'/home/rawdata/Envs/venv/lib/python2.7/site-packages/django/core/files/temp'
p1203
sg12
g13
(g14
g15
NtRp1204
(dp1205
g18
I1
sg19
I0
sg20
I35
sg21
I0
sg22
I0
sg23
I28
sg24
I0
sbssg25
S'X\x96\xe2U9n\xb8\xf9\x145\x97\x8d\x1f\xd6\xa8W'
p1206
ssS'apps_accounts_models'
p1207
(dp1208
g6
(dp1209
g8
S'apps_accounts_models.html'
p1210
sg10
S'apps/accounts/models'
p1211
sg12
g13
(g14
g15
NtRp1212
(dp1213
g18
I1
sg19
I0
sg20
I1
sg21
I0
sg22
I0
sg23
I0
sg24
I0
sbssg25
S'\xd6L\xb8\xbdB\n\xefe\xa68\xebv\xbb\xe0\x1cm'
p1214
ssS'apps_exams_views'
p1215
(dp1216
g6
(dp1217
g8
S'apps_exams_views.html'
p1218
sg10
S'apps/exams/views'
p1219
sg12
g13
(g14
g15
NtRp1220
(dp1221
g18
I1
sg19
I0
sg20
I60
sg21
I0
sg22
I0
sg23
I45
sg24
I0
sbssg25
S'f\xeb\xfd\xbf\xac\xb8\xec\xa6\xca\xa1+\xac\x11Z\xc6\xe9'
p1222
ssS'_home_rawdata_Envs_venv_lib_python2_7_site-packages_django_utils_formats'
p1223
(dp1224
g6
(dp1225
g8
S'_home_rawdata_Envs_venv_lib_python2_7_site-packages_django_utils_formats.html'
p1226
sg10
S'/home/rawdata/Envs/venv/lib/python2.7/site-packages/django/utils/formats'
p1227
sg12
g13
(g14
g15
NtRp1228
(dp1229
g18
I1
sg19
I0
sg20
I118
sg21
I0
sg22
I0
sg23
I92
sg24
I0
sbssg25
S'\x14\xa3#\x15y\x9a\xe1\x80\xb5\xc9\xdb\xac\xc8\xcf\r\x89'
p1230
ssS'_home_rawdata_Envs_venv_lib_python2_7_site-packages_django_core_cache___init__'
p1231
(dp1232
g6
(dp1233
g8
S'_home_rawdata_Envs_venv_lib_python2_7_site-packages_django_core_cache___init__.html'
p1234
sg10
S'/home/rawdata/Envs/venv/lib/python2.7/site-packages/django/core/cache/__init__'
p1235
sg12
g13
(g14
g15
NtRp1236
(dp1237
g18
I1
sg19
I0
sg20
I72
sg21
I0
sg22
I0
sg23
I26
sg24
I0
sbssg25
S'\xa3\xb6Um7\xaco"\x8c\xc7\x9b\xc2\x08P\xf4E'
p1238
ssS'_home_rawdata_Envs_venv_lib_python2_7_site-packages_rest_framework_utils___init__'
p1239
(dp1240
g6
(dp1241
g8
S'_home_rawdata_Envs_venv_lib_python2_7_site-packages_rest_framework_utils___init__.html'
p1242
sg10
S'/home/rawdata/Envs/venv/lib/python2.7/site-packages/rest_framework/utils/__init__'
p1243
sg12
g13
(g14
g15
NtRp1244
(dp1245
g18
I1
sg19
I0
sg20
I0
sg21
I0
sg22
I0
sg23
I0
sg24
I0
sbssg25
S'\xb0\xc8pN\xaf>\xa0\xbaz\x144\xe0A9\xb8?'
p1246
ssS'_home_rawdata_Envs_venv_lib_python2_7_site-packages_django_template_base'
p1247
(dp1248
g6
(dp1249
g8
S'_home_rawdata_Envs_venv_lib_python2_7_site-packages_django_template_base.html'
p1250
sg10
S'/home/rawdata/Envs/venv/lib/python2.7/site-packages/django/template/base'
p1251
sg12
g13
(g14
g15
NtRp1252
(dp1253
g18
I1
sg19
I0
sg20
I786
sg21
I0
sg22
I0
sg23
I566
sg24
I0
sbssg25
S'\xf1\x16\xb2>\x05Cvy\xcc\xd2\xc0\xd0\xd1\xea>\xe7'
p1254
ssS'_home_rawdata_Envs_venv_lib_python2_7_site-packages_django_http_cookie'
p1255
(dp1256
g6
(dp1257
g8
S'_home_rawdata_Envs_venv_lib_python2_7_site-packages_django_http_cookie.html'
p1258
sg10
S'/home/rawdata/Envs/venv/lib/python2.7/site-packages/django/http/cookie'
p1259
sg12
g13
(g14
g15
NtRp1260
(dp1261
g18
I1
sg19
I0
sg20
I55
sg21
I0
sg22
I0
sg23
I37
sg24
I0
sbssg25
S'\x9c+\xe2\xb0]\x96\xc4U\xf6\xb2p\x99P\xf8\xb2\xd1'
p1262
ssS'_home_rawdata_Envs_venv_lib_python2_7_site-packages_selenium_common___init__'
p1263
(dp1264
g6
(dp1265
g8
S'_home_rawdata_Envs_venv_lib_python2_7_site-packages_selenium_common___init__.html'
p1266
sg10
S'/home/rawdata/Envs/venv/lib/python2.7/site-packages/selenium/common/__init__'
p1267
sg12
g13
(g14
g15
NtRp1268
(dp1269
g18
I1
sg19
I0
sg20
I1
sg21
I0
sg22
I0
sg23
I0
sg24
I0
sbssg25
S"\xf3S\xad+\x00/r=e\xf4\xc6\xd9'`\x8fT"
p1270
ssS'_home_rawdata_Envs_venv_lib_python2_7_site-packages_django_forms_formsets'
p1271
(dp1272
g6
(dp1273
g8
S'_home_rawdata_Envs_venv_lib_python2_7_site-packages_django_forms_formsets.html'
p1274
sg10
S'/home/rawdata/Envs/venv/lib/python2.7/site-packages/django/forms/formsets'
p1275
sg12
g13
(g14
g15
NtRp1276
(dp1277
g18
I1
sg19
I0
sg20
I221
sg21
I0
sg22
I0
sg23
I160
sg24
I0
sbssg25
S'\xa5\x0f\xf0\xb6\x17\x9f\xa0\x84\xcf\x00%\xd0_.\xfe\xbd'
p1278
ssS'_home_rawdata_Envs_venv_lib_python2_7_site-packages_django_core_paginator'
p1279
(dp1280
g6
(dp1281
g8
S'_home_rawdata_Envs_venv_lib_python2_7_site-packages_django_core_paginator.html'
p1282
sg10
S'/home/rawdata/Envs/venv/lib/python2.7/site-packages/django/core/paginator'
p1283
sg12
g13
(g14
g15
NtRp1284
(dp1285
g18
I1
sg19
I0
sg20
I90
sg21
I0
sg22
I0
sg23
I57
sg24
I0
sbssg25
S'\x9b\rH\xc5\xb0\x92P\x1a\xec\x08b(\xa0W\xb6\x0e'
p1286
ssS'_home_rawdata_Envs_venv_lib_python2_7_site-packages_django_utils_datetime_safe'
p1287
(dp1288
g6
(dp1289
g8
S'_home_rawdata_Envs_venv_lib_python2_7_site-packages_django_utils_datetime_safe.html'
p1290
sg10
S'/home/rawdata/Envs/venv/lib/python2.7/site-packages/django/utils/datetime_safe'
p1291
sg12
g13
(g14
g15
NtRp1292
(dp1293
g18
I1
sg19
I0
sg20
I58
sg21
I0
sg22
I0
sg23
I42
sg24
I0
sbssg25
S"\xaeX \xe3JY'{\xf0\x02\xe0\xc0\x11H\x1f\x1f"
p1294
ssS'_home_rawdata_Envs_venv_lib_python2_7_site-packages_django_db_backends_creation'
p1295
(dp1296
g6
(dp1297
g8
S'_home_rawdata_Envs_venv_lib_python2_7_site-packages_django_db_backends_creation.html'
p1298
sg10
S'/home/rawdata/Envs/venv/lib/python2.7/site-packages/django/db/backends/creation'
p1299
sg12
g13
(g14
g15
NtRp1300
(dp1301
g18
I1
sg19
I0
sg20
I287
sg21
I0
sg22
I0
sg23
I196
sg24
I0
sbssg25
S'\xf3\x0e\xed~\x9d\xa3\x11\x9c\xf1\xb1\xf2~c\xf0\xddT'
p1302
ssS'_home_rawdata_Envs_venv_lib_python2_7_site-packages_django_contrib_contenttypes___init__'
p1303
(dp1304
g6
(dp1305
g8
S'_home_rawdata_Envs_venv_lib_python2_7_site-packages_django_contrib_contenttypes___init__.html'
p1306
sg10
S'/home/rawdata/Envs/venv/lib/python2.7/site-packages/django/contrib/contenttypes/__init__'
p1307
sg12
g13
(g14
g15
NtRp1308
(dp1309
g18
I1
sg19
I0
sg20
I1
sg21
I0
sg22
I0
sg23
I0
sg24
I0
sbssg25
S'<\x90\xfeqB1~\xf9\x95\xabK \x85\xa712'
p1310
ssS'_home_rawdata_Envs_venv_lib_python2_7_site-packages_django_contrib_sessions_apps'
p1311
(dp1312
g6
(dp1313
g8
S'_home_rawdata_Envs_venv_lib_python2_7_site-packages_django_contrib_sessions_apps.html'
p1314
sg10
S'/home/rawdata/Envs/venv/lib/python2.7/site-packages/django/contrib/sessions/apps'
p1315
sg12
g13
(g14
g15
NtRp1316
(dp1317
g18
I1
sg19
I0
sg20
I5
sg21
I0
sg22
I0
sg23
I0
sg24
I0
sbssg25
S'qn\x8d\t\xff\x06\xb1\x06\xd5\xa6s#\x1a\x85\x05}'
p1318
ssS'_home_rawdata_Envs_venv_lib_python2_7_site-packages_rest_framework_reverse'
p1319
(dp1320
g6
(dp1321
g8
S'_home_rawdata_Envs_venv_lib_python2_7_site-packages_rest_framework_reverse.html'
p1322
sg10
S'/home/rawdata/Envs/venv/lib/python2.7/site-packages/rest_framework/reverse'
p1323
sg12
g13
(g14
g15
NtRp1324
(dp1325
g18
I1
sg19
I0
sg20
I22
sg21
I0
sg22
I0
sg23
I14
sg24
I0
sbssg25
S'\xfe\x00\xed\xa5\x98\xa2\xad\xca\xbbiP\x07\xe9\xdb9\x83'
p1326
ssS'_home_rawdata_Envs_venv_lib_python2_7_site-packages_django___init__'
p1327
(dp1328
g6
(dp1329
g8
S'_home_rawdata_Envs_venv_lib_python2_7_site-packages_django___init__.html'
p1330
sg10
S'/home/rawdata/Envs/venv/lib/python2.7/site-packages/django/__init__'
p1331
sg12
g13
(g14
g15
NtRp1332
(dp1333
g18
I1
sg19
I0
sg20
I10
sg21
I0
sg22
I0
sg23
I0
sg24
I0
sbssg25
S'\x12/#\x86cR\xee=0g\x8b\x10Vuq\xee'
p1334
ssS'_home_rawdata_Envs_venv_lib_python2_7_site-packages_django_db_models_manager'
p1335
(dp1336
g6
(dp1337
g8
S'_home_rawdata_Envs_venv_lib_python2_7_site-packages_django_db_models_manager.html'
p1338
sg10
S'/home/rawdata/Envs/venv/lib/python2.7/site-packages/django/db/models/manager'
p1339
sg12
g13
(g14
g15
NtRp1340
(dp1341
g18
I1
sg19
I0
sg20
I137
sg21
I0
sg22
I0
sg23
I18
sg24
I0
sbssg25
S'H\xac\x05\xf3F\xad\xa8\xf51\x87T\\-\x82\xdb\x99'
p1342
ssS'_home_rawdata_Envs_venv_lib_python2_7_site-packages_django_contrib_messages_constants'
p1343
(dp1344
g6
(dp1345
g8
S'_home_rawdata_Envs_venv_lib_python2_7_site-packages_django_contrib_messages_constants.html'
p1346
sg10
S'/home/rawdata/Envs/venv/lib/python2.7/site-packages/django/contrib/messages/constants'
p1347
sg12
g13
(g14
g15
NtRp1348
(dp1349
g18
I1
sg19
I0
sg20
I7
sg21
I0
sg22
I0
sg23
I0
sg24
I0
sbssg25
S'_ \x8bb\xed|\xfe\xd5\xbe\x06\xbb\xa4\xfd\xc5X\xb9'
p1350
ssS'_home_rawdata_Envs_venv_lib_python2_7_site-packages_selenium_selenium'
p1351
(dp1352
g6
(dp1353
g8
S'_home_rawdata_Envs_venv_lib_python2_7_site-packages_selenium_selenium.html'
p1354
sg10
S'/home/rawdata/Envs/venv/lib/python2.7/site-packages/selenium/selenium'
p1355
sg12
g13
(g14
g15
NtRp1356
(dp1357
g18
I1
sg19
I0
sg20
I402
sg21
I0
sg22
I0
sg23
I230
sg24
I0
sbssg25
S'\xd3\xa7v\xa2\xed\x11\x91M\xa4\xe4\x9br\xb2`C\xf4'
p1358
ssS'_home_rawdata_Envs_venv_lib_python2_7_site-packages_rest_framework_utils_field_mapping'
p1359
(dp1360
g6
(dp1361
g8
S'_home_rawdata_Envs_venv_lib_python2_7_site-packages_rest_framework_utils_field_mapping.html'
p1362
sg10
S'/home/rawdata/Envs/venv/lib/python2.7/site-packages/rest_framework/utils/field_mapping'
p1363
sg12
g13
(g14
g15
NtRp1364
(dp1365
g18
I1
sg19
I0
sg20
I117
sg21
I0
sg22
I0
sg23
I99
sg24
I0
sbssg25
S'L_Rf\xcd\xd9\xf4\xed\x98\xf2\xb6:\x18I\xfdO'
p1366
ssS'_home_rawdata_Envs_venv_lib_python2_7_site-packages_rest_framework_serializers'
p1367
(dp1368
g6
(dp1369
g8
S'_home_rawdata_Envs_venv_lib_python2_7_site-packages_rest_framework_serializers.html'
p1370
sg10
S'/home/rawdata/Envs/venv/lib/python2.7/site-packages/rest_framework/serializers'
p1371
sg12
g13
(g14
g15
NtRp1372
(dp1373
g18
I1
sg19
I0
sg20
I543
sg21
I0
sg22
I0
sg23
I439
sg24
I0
sbssg25
S'A\x11z\x17\xa8\xe1\xcd\x02|\xbc\x95eh\xd1\xebx'
p1374
ssS'_home_rawdata_Envs_venv_lib_python2_7_site-packages_selenium_webdriver_chrome_webdriver'
p1375
(dp1376
g6
(dp1377
g8
S'_home_rawdata_Envs_venv_lib_python2_7_site-packages_selenium_webdriver_chrome_webdriver.html'
p1378
sg10
S'/home/rawdata/Envs/venv/lib/python2.7/site-packages/selenium/webdriver/chrome/webdriver'
p1379
sg12
g13
(g14
g15
NtRp1380
(dp1381
g18
I1
sg19
I0
sg20
I30
sg21
I0
sg22
I0
sg23
I20
sg24
I0
sbssg25
S'\xf9\xa0k\x1a\x1d\xfb\xa4\x15\xcb48(\r\x1fl\xd7'
p1382
ssS'_home_rawdata_Envs_venv_lib_python2_7_site-packages_rest_framework_utils_breadcrumbs'
p1383
(dp1384
g6
(dp1385
g8
S'_home_rawdata_Envs_venv_lib_python2_7_site-packages_rest_framework_utils_breadcrumbs.html'
p1386
sg10
S'/home/rawdata/Envs/venv/lib/python2.7/site-packages/rest_framework/utils/breadcrumbs'
p1387
sg12
g13
(g14
g15
NtRp1388
(dp1389
g18
I1
sg19
I0
sg20
I28
sg21
I0
sg22
I0
sg23
I25
sg24
I0
sbssg25
S'\xae\xdd\xbb\x9f\x8c\x94\xc5\xe2\x13?\xdc\x19%\xaa\xee\xdf'
p1390
ssS'_home_rawdata_Envs_venv_lib_python2_7_site-packages_django_core_files___init__'
p1391
(dp1392
g6
(dp1393
g8
S'_home_rawdata_Envs_venv_lib_python2_7_site-packages_django_core_files___init__.html'
p1394
sg10
S'/home/rawdata/Envs/venv/lib/python2.7/site-packages/django/core/files/__init__'
p1395
sg12
g13
(g14
g15
NtRp1396
(dp1397
g18
I1
sg19
I0
sg20
I2
sg21
I0
sg22
I0
sg23
I0
sg24
I0
sbssg25
S'i\xe6\xf12\xa4X\xf0\xf2?\x9aZ\xbb&\xa6\x1f^'
p1398
ssS'_home_rawdata_Envs_venv_lib_python2_7_site-packages_django_db_backends_utils'
p1399
(dp1400
g6
(dp1401
g8
S'_home_rawdata_Envs_venv_lib_python2_7_site-packages_django_db_backends_utils.html'
p1402
sg10
S'/home/rawdata/Envs/venv/lib/python2.7/site-packages/django/db/backends/utils'
p1403
sg12
g13
(g14
g15
NtRp1404
(dp1405
g18
I1
sg19
I0
sg20
I120
sg21
I0
sg22
I0
sg23
I73
sg24
I0
sbssg25
S'\x94 EW\xc7\x10\x029\x1f\x91O6\xe0\x96 +'
p1406
ssS'_home_rawdata_Envs_venv_lib_python2_7_site-packages_django_contrib_messages_api'
p1407
(dp1408
g6
(dp1409
g8
S'_home_rawdata_Envs_venv_lib_python2_7_site-packages_django_contrib_messages_api.html'
p1410
sg10
S'/home/rawdata/Envs/venv/lib/python2.7/site-packages/django/contrib/messages/api'
p1411
sg12
g13
(g14
g15
NtRp1412
(dp1413
g18
I1
sg19
I0
sg20
I37
sg21
I0
sg22
I0
sg23
I22
sg24
I0
sbssg25
S'*\x90\x9c\xde\x9f\xd9c\x00\xdaNX \xde\x17\x92a'
p1414
ssS'_home_rawdata_Envs_venv_lib_python2_7_site-packages_django_views_decorators_debug'
p1415
(dp1416
g6
(dp1417
g8
S'_home_rawdata_Envs_venv_lib_python2_7_site-packages_django_views_decorators_debug.html'
p1418
sg10
S'/home/rawdata/Envs/venv/lib/python2.7/site-packages/django/views/decorators/debug'
p1419
sg12
g13
(g14
g15
NtRp1420
(dp1421
g18
I1
sg19
I0
sg20
I21
sg21
I0
sg22
I0
sg23
I13
sg24
I0
sbssg25
S'%\x95J\xd11\x82{ay\x0ep\xc46\xc8\xbcB'
p1422
ssS'_home_rawdata_Envs_venv_lib_python2_7_site-packages_django_contrib_contenttypes_management'
p1423
(dp1424
g6
(dp1425
g8
S'_home_rawdata_Envs_venv_lib_python2_7_site-packages_django_contrib_contenttypes_management.html'
p1426
sg10
S'/home/rawdata/Envs/venv/lib/python2.7/site-packages/django/contrib/contenttypes/management'
p1427
sg12
g13
(g14
g15
NtRp1428
(dp1429
g18
I1
sg19
I0
sg20
I45
sg21
I0
sg22
I0
sg23
I20
sg24
I0
sbssg25
S'\xc3\xdae\xb5$\r\x91\xfa\x8f\xee\xa4I\xbf1\x87\xe3'
p1430
ssS'_home_rawdata_Envs_venv_lib_python2_7_site-packages_selenium_webdriver_opera_service'
p1431
(dp1432
g6
(dp1433
g8
S'_home_rawdata_Envs_venv_lib_python2_7_site-packages_selenium_webdriver_opera_service.html'
p1434
sg10
S'/home/rawdata/Envs/venv/lib/python2.7/site-packages/selenium/webdriver/opera/service'
p1435
sg12
g13
(g14
g15
NtRp1436
(dp1437
g18
I1
sg19
I0
sg20
I29
sg21
I0
sg22
I0
sg23
I20
sg24
I0
sbssg25
S'\xddc\n\xb1\xe4\xdf\xba}\xc1\x8e\xf4\x89\xf3j#\xb4'
p1438
ssS'_home_rawdata_Envs_venv_lib_python2_7_site-packages_django_core_validators'
p1439
(dp1440
g6
(dp1441
g8
S'_home_rawdata_Envs_venv_lib_python2_7_site-packages_django_core_validators.html'
p1442
sg10
S'/home/rawdata/Envs/venv/lib/python2.7/site-packages/django/core/validators'
p1443
sg12
g13
(g14
g15
NtRp1444
(dp1445
g18
I1
sg19
I0
sg20
I178
sg21
I0
sg22
I0
sg23
I78
sg24
I0
sbssg25
S'\x17\xcf\x84|\xaa\xdfuo\x95w\x1a\xcc\xaf\x93o\x0f'
p1446
ssS'apps_questions_admin'
p1447
(dp1448
g6
(dp1449
g8
S'apps_questions_admin.html'
p1450
sg10
S'apps/questions/admin'
p1451
sg12
g13
(g14
g15
NtRp1452
(dp1453
g18
I1
sg19
I0
sg20
I15
sg21
I0
sg22
I0
sg23
I0
sg24
I0
sbssg25
S'T\xebt\x9c\x93r\x8cL\xee\xee\xab\x01&\x7f0y'
p1454
ssS'_home_rawdata_Envs_venv_lib_python2_7_site-packages_selenium_webdriver_common_proxy'
p1455
(dp1456
g6
(dp1457
g8
S'_home_rawdata_Envs_venv_lib_python2_7_site-packages_selenium_webdriver_common_proxy.html'
p1458
sg10
S'/home/rawdata/Envs/venv/lib/python2.7/site-packages/selenium/webdriver/common/proxy'
p1459
sg12
g13
(g14
g15
NtRp1460
(dp1461
g18
I1
sg19
I0
sg20
I140
sg21
I0
sg22
I0
sg23
I94
sg24
I0
sbssg25
S'\xdc!\x86\x9b\x01\x93\xdc;\x18\x96%\x90\x1c\xa9\x89\xac'
p1462
ssS'_home_rawdata_Envs_venv_lib_python2_7_site-packages_rest_framework_utils_humanize_datetime'
p1463
(dp1464
g6
(dp1465
g8
S'_home_rawdata_Envs_venv_lib_python2_7_site-packages_rest_framework_utils_humanize_datetime.html'
p1466
sg10
S'/home/rawdata/Envs/venv/lib/python2.7/site-packages/rest_framework/utils/humanize_datetime'
p1467
sg12
g13
(g14
g15
NtRp1468
(dp1469
g18
I1
sg19
I0
sg20
I15
sg21
I0
sg22
I0
sg23
I10
sg24
I0
sbssg25
S'\xaf\xca\x1c\xc2\xac\x0f>\x83\\\xc2%\xb9\x052Nu'
p1470
ssS'_home_rawdata_Envs_venv_lib_python2_7_site-packages_django_dispatch___init__'
p1471
(dp1472
g6
(dp1473
g8
S'_home_rawdata_Envs_venv_lib_python2_7_site-packages_django_dispatch___init__.html'
p1474
sg10
S'/home/rawdata/Envs/venv/lib/python2.7/site-packages/django/dispatch/__init__'
p1475
sg12
g13
(g14
g15
NtRp1476
(dp1477
g18
I1
sg19
I0
sg20
I1
sg21
I0
sg22
I0
sg23
I0
sg24
I0
sbssg25
S'\xa7>\xfc]\xa2\xc8\x97\x0b\xfb2\xef\xeep\xb7\xed\x99'
p1478
ssS'_home_rawdata_Envs_venv_lib_python2_7_site-packages_rest_framework_models'
p1479
(dp1480
g6
(dp1481
g8
S'_home_rawdata_Envs_venv_lib_python2_7_site-packages_rest_framework_models.html'
p1482
sg10
S'/home/rawdata/Envs/venv/lib/python2.7/site-packages/rest_framework/models'
p1483
sg12
g13
(g14
g15
NtRp1484
(dp1485
g18
I1
sg19
I0
sg20
I0
sg21
I0
sg22
I0
sg23
I0
sg24
I0
sbssg25
S' E\xaf\xdd\xe7\xbb\xc4\x11z\xf8\x80\x18v.\xec\xf6'
p1486
ssS'apps_accounts_migrations___init__'
p1487
(dp1488
g6
(dp1489
g8
S'apps_accounts_migrations___init__.html'
p1490
sg10
S'apps/accounts/migrations/__init__'
p1491
sg12
g13
(g14
g15
NtRp1492
(dp1493
g18
I1
sg19
I0
sg20
I0
sg21
I0
sg22
I0
sg23
I0
sg24
I0
sbssg25
S'\xb0\xc8pN\xaf>\xa0\xbaz\x144\xe0A9\xb8?'
p1494
ssS'_home_rawdata_Envs_venv_lib_python2_7_site-packages_selenium_webdriver_support_ui'
p1495
(dp1496
g6
(dp1497
g8
S'_home_rawdata_Envs_venv_lib_python2_7_site-packages_selenium_webdriver_support_ui.html'
p1498
sg10
S'/home/rawdata/Envs/venv/lib/python2.7/site-packages/selenium/webdriver/support/ui'
p1499
sg12
g13
(g14
g15
NtRp1500
(dp1501
g18
I1
sg19
I0
sg20
I2
sg21
I0
sg22
I0
sg23
I0
sg24
I0
sbssg25
S'E\xf9\xc5\xdd\x16s\x02\xa0\x18\xd4J{{\xf9x\xe5'
p1502
ssS'apps_exams_tests'
p1503
(dp1504
g6
(dp1505
g367
S'apps_exams_tests.html'
p1506
sg369
S'apps/exams/tests'
p1507
sg371
g13
(g14
g15
NtRp1508
(dp1509
g18
I1
sg19
I0
sg20
I37
sg21
I0
sg22
I0
sg23
I6
sg24
I0
sbssg25
S'\x93Vf\xf6i\x9b\x87\x0f\xc5\x1c\tb\xae\xbeF\xd0'
p1510
ssS'_home_rawdata_Envs_venv_lib_python2_7_site-packages_crispy_forms_helper'
p1511
(dp1512
g6
(dp1513
g8
S'_home_rawdata_Envs_venv_lib_python2_7_site-packages_crispy_forms_helper.html'
p1514
sg10
S'/home/rawdata/Envs/venv/lib/python2.7/site-packages/crispy_forms/helper'
p1515
sg12
g13
(g14
g15
NtRp1516
(dp1517
g18
I1
sg19
I0
sg20
I197
sg21
I0
sg22
I0
sg23
I126
sg24
I0
sbssg25
S'\x00^\xdag\x7fb\xf8\x90\x11b\x88d\xc7\x15;\xfe'
p1518
ssS'_home_rawdata_Envs_venv_lib_python2_7_site-packages_django_test_runner'
p1519
(dp1520
g6
(dp1521
S'html_filename'
p1522
S'_home_rawdata_Envs_venv_lib_python2_7_site-packages_django_test_runner.html'
p1523
sS'name'
p1524
S'/home/rawdata/Envs/venv/lib/python2.7/site-packages/django/test/runner'
p1525
sS'nums'
p1526
g13
(g14
g15
NtRp1527
(dp1528
g18
I1
sg19
I0
sg20
I163
sg21
I0
sg22
I0
sg23
I20
sg24
I0
sbssg25
S'\xa9\x7fh\x12)a\x010\x1e\xc9\xd0z\xaa\xc9\x0c\xda'
p1529
ssS'_home_rawdata_Envs_venv_lib_python2_7_site-packages_django_contrib_admin_templatetags_admin_static'
p1530
(dp1531
g6
(dp1532
g8
S'_home_rawdata_Envs_venv_lib_python2_7_site-packages_django_contrib_admin_templatetags_admin_static.html'
p1533
sg10
S'/home/rawdata/Envs/venv/lib/python2.7/site-packages/django/contrib/admin/templatetags/admin_static'
p1534
sg12
g13
(g14
g15
NtRp1535
(dp1536
g18
I1
sg19
I0
sg20
I10
sg21
I0
sg22
I0
sg23
I5
sg24
I0
sbssg25
S'\xa9\xc7\x10\x8f!,\xf1\xd4\x9a\x9fk\xc6$\xe8u%'
p1537
ssS'_home_rawdata_Envs_venv_lib_python2_7_site-packages_django_template_smartif'
p1538
(dp1539
g6
(dp1540
g8
S'_home_rawdata_Envs_venv_lib_python2_7_site-packages_django_template_smartif.html'
p1541
sg10
S'/home/rawdata/Envs/venv/lib/python2.7/site-packages/django/template/smartif'
p1542
sg12
g13
(g14
g15
NtRp1543
(dp1544
g18
I1
sg19
I0
sg20
I104
sg21
I0
sg22
I0
sg23
I61
sg24
I0
sbssg25
S'\xe8\xb0ehs\x0c\x14\xc2\xf0\xa3\x03\xcaa9\xc5\xe2'
p1545
ssS'_home_rawdata_Envs_venv_lib_python2_7_site-packages_model_mommy_mommy'
p1546
(dp1547
g365
(dp1548
g367
S'_home_rawdata_Envs_venv_lib_python2_7_site-packages_model_mommy_mommy.html'
p1549
sg369
S'/home/rawdata/Envs/venv/lib/python2.7/site-packages/model_mommy/mommy'
p1550
sg371
g13
(g14
g15
NtRp1551
(dp1552
g18
I1
sg19
I0
sg20
I284
sg21
I0
sg22
I0
sg23
I127
sg24
I0
sbssg374
S'm\r\x05\xb4V4:\ns\x02]\xa8\xe1\xa5\xbb\xae'
p1553
ssS'apps_exams_migrations_0002_answer_question'
p1554
(dp1555
g6
(dp1556
g8
S'apps_exams_migrations_0002_answer_question.html'
p1557
sg10
S'apps/exams/migrations/0002_answer_question'
p1558
sg12
g13
(g14
g15
NtRp1559
(dp1560
g18
I1
sg19
I0
sg20
I5
sg21
I0
sg22
I0
sg23
I0
sg24
I0
sbssg25
S'1c\xacU\xc5\x17|M\x97/W\x1f\xb0\xc0\x08\xf7'
p1561
ssS'_home_rawdata_Envs_venv_lib_python2_7_site-packages_django_views_generic___init__'
p1562
(dp1563
g6
(dp1564
g8
S'_home_rawdata_Envs_venv_lib_python2_7_site-packages_django_views_generic___init__.html'
p1565
sg10
S'/home/rawdata/Envs/venv/lib/python2.7/site-packages/django/views/generic/__init__'
p1566
sg12
g13
(g14
g15
NtRp1567
(dp1568
g18
I1
sg19
I0
sg20
I8
sg21
I0
sg22
I0
sg23
I0
sg24
I0
sbssg25
S'\x085\xecF\t\xd0\x7f\x040\x8e\x8e`\xf2q!\xdf'
p1569
ssS'_home_rawdata_Envs_venv_lib_python2_7_site-packages_django_db_models_aggregates'
p1570
(dp1571
g6
(dp1572
g8
S'_home_rawdata_Envs_venv_lib_python2_7_site-packages_django_db_models_aggregates.html'
p1573
sg10
S'/home/rawdata/Envs/venv/lib/python2.7/site-packages/django/db/models/aggregates'
p1574
sg12
g13
(g14
g15
NtRp1575
(dp1576
g18
I1
sg19
I0
sg20
I33
sg21
I0
sg22
I0
sg23
I11
sg24
I0
sbssg25
S'\x7f\xcbW5_6X\xc6\xac\x82\xa3w\xfd\xc6\xee@'
p1577
ssS'_home_rawdata_Envs_venv_lib_python2_7_site-packages_django_core_management_color'
p1578
(dp1579
g6
(dp1580
g8
S'_home_rawdata_Envs_venv_lib_python2_7_site-packages_django_core_management_color.html'
p1581
sg10
S'/home/rawdata/Envs/venv/lib/python2.7/site-packages/django/core/management/color'
p1582
sg12
g13
(g14
g15
NtRp1583
(dp1584
g18
I1
sg19
I0
sg20
I30
sg21
I0
sg22
I0
sg23
I3
sg24
I0
sbssg25
S'5.\x06\xfc%\xf2Zo[\x94\xe8\xb3F\xdd\x8e\xb6'
p1585
ssS'_home_rawdata_Envs_venv_lib_python2_7_site-packages_crispy_forms_bootstrap'
p1586
(dp1587
g6
(dp1588
g8
S'_home_rawdata_Envs_venv_lib_python2_7_site-packages_crispy_forms_bootstrap.html'
p1589
sg10
S'/home/rawdata/Envs/venv/lib/python2.7/site-packages/crispy_forms/bootstrap'
p1590
sg12
g13
(g14
g15
NtRp1591
(dp1592
g18
I1
sg19
I0
sg20
I165
sg21
I0
sg22
I0
sg23
I98
sg24
I0
sbssg25
S'\xd0\x8f\xd4\x17b5\xc0\xb3\x01h5\x1f\x98\xbdz\xfb'
p1593
ssS'_home_rawdata_Envs_venv_lib_python2_7_site-packages_markdown_inlinepatterns'
p1594
(dp1595
g6
(dp1596
g8
S'_home_rawdata_Envs_venv_lib_python2_7_site-packages_markdown_inlinepatterns.html'
p1597
sg10
S'/home/rawdata/Envs/venv/lib/python2.7/site-packages/markdown/inlinepatterns'
p1598
sg12
g13
(g14
g15
NtRp1599
(dp1600
g18
I1
sg19
I0
sg20
I237
sg21
I29
sg22
I0
sg23
I168
sg24
I0
sbssg25
S'\x12j;I\x8d\x93\xe4X^\xbd\xa6\xa6\xdc\xef+\t'
p1601
ssS'_home_rawdata_Envs_venv_lib_python2_7_site-packages_markdown_extensions___init__'
p1602
(dp1603
g6
(dp1604
g8
S'_home_rawdata_Envs_venv_lib_python2_7_site-packages_markdown_extensions___init__.html'
p1605
sg10
S'/home/rawdata/Envs/venv/lib/python2.7/site-packages/markdown/extensions/__init__'
p1606
sg12
g13
(g14
g15
NtRp1607
(dp1608
g18
I1
sg19
I0
sg20
I36
sg21
I0
sg22
I0
sg23
I24
sg24
I0
sbssg25
S'\xb9\x04\xa8_\xae\x94\x90"\xa4\xf4\xd6\xce\xb8_\xca\''
p1609
ssS'_home_rawdata_Envs_venv_lib_python2_7_site-packages_django_db_backends_sqlite3_base'
p1610
(dp1611
g6
(dp1612
g8
S'_home_rawdata_Envs_venv_lib_python2_7_site-packages_django_db_backends_sqlite3_base.html'
p1613
sg10
S'/home/rawdata/Envs/venv/lib/python2.7/site-packages/django/db/backends/sqlite3/base'
p1614
sg12
g13
(g14
g15
NtRp1615
(dp1616
g18
I1
sg19
I0
sg20
I322
sg21
I0
sg22
I0
sg23
I146
sg24
I0
sbssg25
S'n\xd9z\xdeH\xc4>^\xbd\xd9\xb9Z\xa4\x17q\x81'
p1617
ssS'_home_rawdata_Envs_venv_lib_python2_7_site-packages_django_core_servers_basehttp'
p1618
(dp1619
g6
(dp1620
g8
S'_home_rawdata_Envs_venv_lib_python2_7_site-packages_django_core_servers_basehttp.html'
p1621
sg10
S'/home/rawdata/Envs/venv/lib/python2.7/site-packages/django/core/servers/basehttp'
p1622
sg12
g13
(g14
g15
NtRp1623
(dp1624
g18
I1
sg19
I0
sg20
I93
sg21
I0
sg22
I0
sg23
I58
sg24
I0
sbssg25
S'\x9b\x02\x05\x03J\xe8_L\xb0$\xc8C\x16\xb6[\xa0'
p1625
ssS'_home_rawdata_Envs_venv_lib_python2_7_site-packages_django_template_context'
p1626
(dp1627
g6
(dp1628
g8
S'_home_rawdata_Envs_venv_lib_python2_7_site-packages_django_template_context.html'
p1629
sg10
S'/home/rawdata/Envs/venv/lib/python2.7/site-packages/django/template/context'
p1630
sg12
g13
(g14
g15
NtRp1631
(dp1632
g18
I1
sg19
I0
sg20
I121
sg21
I0
sg22
I0
sg23
I82
sg24
I0
sbssg25
S'\xae\xbe!\x94\xc8\xc5\x82\xd2X\xdc7\xc9\x8b\xe8\xc7,'
p1633
ssS'_home_rawdata_Envs_venv_lib_python2_7_site-packages_django_db_models_sql_expressions'
p1634
(dp1635
g6
(dp1636
g8
S'_home_rawdata_Envs_venv_lib_python2_7_site-packages_django_db_models_sql_expressions.html'
p1637
sg10
S'/home/rawdata/Envs/venv/lib/python2.7/site-packages/django/db/models/sql/expressions'
p1638
sg12
g13
(g14
g15
NtRp1639
(dp1640
g18
I1
sg19
I0
sg20
I83
sg21
I0
sg22
I0
sg23
I68
sg24
I0
sbssg25
S'\xcfl\xb8L\xeb\x1b\xdd\xf6\x13x\x88\xc3Gv\xdb%'
p1641
ssS'_home_rawdata_Envs_venv_lib_python2_7_site-packages_django_dispatch_weakref_backports'
p1642
(dp1643
g6
(dp1644
g8
S'_home_rawdata_Envs_venv_lib_python2_7_site-packages_django_dispatch_weakref_backports.html'
p1645
sg10
S'/home/rawdata/Envs/venv/lib/python2.7/site-packages/django/dispatch/weakref_backports'
p1646
sg12
g13
(g14
g15
NtRp1647
(dp1648
g18
I1
sg19
I0
sg20
I40
sg21
I0
sg22
I0
sg23
I18
sg24
I0
sbssg25
S'FmO\x1e\xb0\x8e\x1a\xff\x8b\x81\xdfI\xc4\x06\x04\x83'
p1649
ssS'apps_questions_tests_test_model'
p1650
(dp1651
g365
(dp1652
g367
S'apps_questions_tests_test_model.html'
p1653
sg369
S'apps/questions/tests/test_model'
p1654
sg371
g13
(g14
g15
NtRp1655
(dp1656
g18
I1
sg19
I0
sg20
I14
sg21
I0
sg22
I0
sg23
I0
sg24
I0
sbssg374
S'\xdf\xd7\x84\xe0\xbbA\xbf*\x02q:U+Y.\xca'
p1657
ssS'_home_rawdata_Envs_venv_lib_python2_7_site-packages_selenium_webdriver_remote___init__'
p1658
(dp1659
g6
(dp1660
g8
S'_home_rawdata_Envs_venv_lib_python2_7_site-packages_selenium_webdriver_remote___init__.html'
p1661
sg10
S'/home/rawdata/Envs/venv/lib/python2.7/site-packages/selenium/webdriver/remote/__init__'
p1662
sg12
g13
(g14
g15
NtRp1663
(dp1664
g18
I1
sg19
I0
sg20
I0
sg21
I0
sg22
I0
sg23
I0
sg24
I0
sbssg25
S'W\xed\xba.gR]] \xb4\x9c\x7f\xd5b\xe9\x83'
p1665
ssS'_home_rawdata_Envs_venv_lib_python2_7_site-packages_django_contrib_auth_decorators'
p1666
(dp1667
g6
(dp1668
g8
S'_home_rawdata_Envs_venv_lib_python2_7_site-packages_django_contrib_auth_decorators.html'
p1669
sg10
S'/home/rawdata/Envs/venv/lib/python2.7/site-packages/django/contrib/auth/decorators'
p1670
sg12
g13
(g14
g15
NtRp1671
(dp1672
g18
I1
sg19
I0
sg20
I38
sg21
I0
sg22
I0
sg23
I21
sg24
I0
sbssg25
S'a\xce\x95\xc2\x90\x99\xa3`I\xa3\x90\xb4\x8c\x06g$'
p1673
ssS'apps_api_admin'
p1674
(dp1675
g6
(dp1676
g8
S'apps_api_admin.html'
p1677
sg10
S'apps/api/admin'
p1678
sg12
g13
(g14
g15
NtRp1679
(dp1680
g18
I1
sg19
I0
sg20
I1
sg21
I0
sg22
I0
sg23
I0
sg24
I0
sbssg25
S"\xdb'\xf7S\xdfw!08\x1e\x85\x00\xc4\xdb\xe9\xf1"
p1681
ssS'_home_rawdata_Envs_venv_lib_python2_7_site-packages_django_contrib_admin_templatetags_admin_urls'
p1682
(dp1683
g6
(dp1684
g8
S'_home_rawdata_Envs_venv_lib_python2_7_site-packages_django_contrib_admin_templatetags_admin_urls.html'
p1685
sg10
S'/home/rawdata/Envs/venv/lib/python2.7/site-packages/django/contrib/admin/templatetags/admin_urls'
p1686
sg12
g13
(g14
g15
NtRp1687
(dp1688
g18
I1
sg19
I0
sg20
I38
sg21
I0
sg22
I0
sg23
I28
sg24
I0
sbssg25
S'l\xdc\xf3\xa1\xe2\x7f\xe4{\xcbg\x07\xdaQ\xe6\xecF'
p1689
ssS'_home_rawdata_Envs_venv_lib_python2_7_site-packages_django_contrib_contenttypes_admin'
p1690
(dp1691
g6
(dp1692
g8
S'_home_rawdata_Envs_venv_lib_python2_7_site-packages_django_contrib_contenttypes_admin.html'
p1693
sg10
S'/home/rawdata/Envs/venv/lib/python2.7/site-packages/django/contrib/contenttypes/admin'
p1694
sg12
g13
(g14
g15
NtRp1695
(dp1696
g18
I1
sg19
I0
sg20
I55
sg21
I0
sg22
I0
sg23
I32
sg24
I0
sbssg25
S'\xdc\xda\x958\x17\xf6\x12\x01\x9c\xccn\xb4\x7f3m\x9e'
p1697
ssS'_home_rawdata_Envs_venv_lib_python2_7_site-packages_django_core_serializers___init__'
p1698
(dp1699
g6
(dp1700
g8
S'_home_rawdata_Envs_venv_lib_python2_7_site-packages_django_core_serializers___init__.html'
p1701
sg10
S'/home/rawdata/Envs/venv/lib/python2.7/site-packages/django/core/serializers/__init__'
p1702
sg12
g13
(g14
g15
NtRp1703
(dp1704
g18
I1
sg19
I0
sg20
I64
sg21
I0
sg22
I0
sg23
I22
sg24
I0
sbssg25
S'7<K\xc9\xb1CP\x04\xb3 \x0f\xec\xfb\xef6\xd3'
p1705
ssS'apps_api___init__'
p1706
(dp1707
g6
(dp1708
g8
S'apps_api___init__.html'
p1709
sg10
S'apps/api/__init__'
p1710
sg12
g13
(g14
g15
NtRp1711
(dp1712
g18
I1
sg19
I0
sg20
I0
sg21
I0
sg22
I0
sg23
I0
sg24
I0
sbssg25
S'\xb0\xc8pN\xaf>\xa0\xbaz\x144\xe0A9\xb8?'
p1713
ssS'_home_rawdata_Envs_venv_lib_python2_7_site-packages_markdown_util'
p1714
(dp1715
g6
(dp1716
g8
S'_home_rawdata_Envs_venv_lib_python2_7_site-packages_markdown_util.html'
p1717
sg10
S'/home/rawdata/Envs/venv/lib/python2.7/site-packages/markdown/util'
p1718
sg12
g13
(g14
g15
NtRp1719
(dp1720
g18
I1
sg19
I0
sg20
I59
sg21
I18
sg22
I0
sg23
I32
sg24
I0
sbssg25
S'\xae\x8e\xbc\x82\xc83\xfc\xa2\xc9\x8e\xf2\xcc\x02\xef6F'
p1721
ssS'_home_rawdata_Envs_venv_lib_python2_7_site-packages_django_db_backends_sqlite3_creation'
p1722
(dp1723
g6
(dp1724
g8
S'_home_rawdata_Envs_venv_lib_python2_7_site-packages_django_db_backends_sqlite3_creation.html'
p1725
sg10
S'/home/rawdata/Envs/venv/lib/python2.7/site-packages/django/db/backends/sqlite3/creation'
p1726
sg12
g13
(g14
g15
NtRp1727
(dp1728
g18
I1
sg19
I0
sg20
I42
sg21
I0
sg22
I0
sg23
I17
sg24
I0
sbssg25
S"aV\xa8i'\xef\xdca|}Z\xc5\ne\xc7\xc4"
p1729
ssS'_home_rawdata_Envs_venv_lib_python2_7_site-packages_django_db_models_sql_datastructures'
p1730
(dp1731
g6
(dp1732
g8
S'_home_rawdata_Envs_venv_lib_python2_7_site-packages_django_db_models_sql_datastructures.html'
p1733
sg10
S'/home/rawdata/Envs/venv/lib/python2.7/site-packages/django/db/models/sql/datastructures'
p1734
sg12
g13
(g14
g15
NtRp1735
(dp1736
g18
I1
sg19
I0
sg20
I48
sg21
I0
sg22
I0
sg23
I21
sg24
I0
sbssg25
S'\xc9\x0f\xde\xedt\x99\xd2O\xa18\xfd\xde,\x8a~]'
p1737
ssS'_home_rawdata_Envs_venv_lib_python2_7_site-packages_selenium_webdriver_android_webdriver'
p1738
(dp1739
g6
(dp1740
g8
S'_home_rawdata_Envs_venv_lib_python2_7_site-packages_selenium_webdriver_android_webdriver.html'
p1741
sg10
S'/home/rawdata/Envs/venv/lib/python2.7/site-packages/selenium/webdriver/android/webdriver'
p1742
sg12
g13
(g14
g15
NtRp1743
(dp1744
g18
I1
sg19
I0
sg20
I6
sg21
I0
sg22
I0
sg23
I1
sg24
I0
sbssg25
S'\xe6\xdf2\x1e\xce&\xf3\x8c1\xc2KQxqj\xda'
p1745
ssS'_home_rawdata_Envs_venv_lib_python2_7_site-packages_django_contrib_contenttypes_migrations___init__'
p1746
(dp1747
g6
(dp1748
g8
S'_home_rawdata_Envs_venv_lib_python2_7_site-packages_django_contrib_contenttypes_migrations___init__.html'
p1749
sg10
S'/home/rawdata/Envs/venv/lib/python2.7/site-packages/django/contrib/contenttypes/migrations/__init__'
p1750
sg12
g13
(g14
g15
NtRp1751
(dp1752
g18
I1
sg19
I0
sg20
I0
sg21
I0
sg22
I0
sg23
I0
sg24
I0
sbssg25
S'\xb0\xc8pN\xaf>\xa0\xbaz\x144\xe0A9\xb8?'
p1753
ssS'apps_exams_migrations_0004_answer_user'
p1754
(dp1755
g6
(dp1756
g8
S'apps_exams_migrations_0004_answer_user.html'
p1757
sg10
S'apps/exams/migrations/0004_answer_user'
p1758
sg12
g13
(g14
g15
NtRp1759
(dp1760
g18
I1
sg19
I0
sg20
I6
sg21
I0
sg22
I0
sg23
I0
sg24
I0
sbssg25
S'\x1b\x96M\x1a\x0c\xcdw\xe3J\x93y\r\x01\x9d\x84V'
p1761
ssS'_home_rawdata_Envs_venv_lib_python2_7_site-packages_django_core___init__'
p1762
(dp1763
g6
(dp1764
g8
S'_home_rawdata_Envs_venv_lib_python2_7_site-packages_django_core___init__.html'
p1765
sg10
S'/home/rawdata/Envs/venv/lib/python2.7/site-packages/django/core/__init__'
p1766
sg12
g13
(g14
g15
NtRp1767
(dp1768
g18
I1
sg19
I0
sg20
I0
sg21
I0
sg22
I0
sg23
I0
sg24
I0
sbssg25
S'\xb0\xc8pN\xaf>\xa0\xbaz\x144\xe0A9\xb8?'
p1769
ssS'_home_rawdata_Envs_venv_lib_python2_7_site-packages_selenium_webdriver_remote_webdriver'
p1770
(dp1771
g6
(dp1772
g8
S'_home_rawdata_Envs_venv_lib_python2_7_site-packages_selenium_webdriver_remote_webdriver.html'
p1773
sg10
S'/home/rawdata/Envs/venv/lib/python2.7/site-packages/selenium/webdriver/remote/webdriver'
p1774
sg12
g13
(g14
g15
NtRp1775
(dp1776
g18
I1
sg19
I0
sg20
I241
sg21
I0
sg22
I0
sg23
I93
sg24
I0
sbssg25
S'\x8f\xa0\x81/A\xf0y\x1ci\x9bU\xa5%\x1c7\x9a'
p1777
ssS'_home_rawdata_Envs_venv_lib_python2_7_site-packages_django_contrib_contenttypes_forms'
p1778
(dp1779
g6
(dp1780
g8
S'_home_rawdata_Envs_venv_lib_python2_7_site-packages_django_contrib_contenttypes_forms.html'
p1781
sg10
S'/home/rawdata/Envs/venv/lib/python2.7/site-packages/django/contrib/contenttypes/forms'
p1782
sg12
g13
(g14
g15
NtRp1783
(dp1784
g18
I1
sg19
I0
sg20
I38
sg21
I0
sg22
I0
sg23
I28
sg24
I0
sbssg25
S'\x96i\xbb\x98m\xda\xf19\x8b\xc1m{\xc0\x01\xe6\x01'
p1785
ssS'_home_rawdata_Envs_venv_lib_python2_7_site-packages_django_contrib_contenttypes_migrations_0001_initial'
p1786
(dp1787
g6
(dp1788
g8
S'_home_rawdata_Envs_venv_lib_python2_7_site-packages_django_contrib_contenttypes_migrations_0001_initial.html'
p1789
sg10
S'/home/rawdata/Envs/venv/lib/python2.7/site-packages/django/contrib/contenttypes/migrations/0001_initial'
p1790
sg12
g13
(g14
g15
NtRp1791
(dp1792
g18
I1
sg19
I0
sg20
I5
sg21
I0
sg22
I0
sg23
I0
sg24
I0
sbssg25
S'\xbf\xb6U\xe1\xc8Hm\xa2E\x04\xd4%\xf3\x96\x8c\xa0'
p1793
ssS'_home_rawdata_Envs_venv_lib_python2_7_site-packages_django_contrib_auth_apps'
p1794
(dp1795
g6
(dp1796
g8
S'_home_rawdata_Envs_venv_lib_python2_7_site-packages_django_contrib_auth_apps.html'
p1797
sg10
S'/home/rawdata/Envs/venv/lib/python2.7/site-packages/django/contrib/auth/apps'
p1798
sg12
g13
(g14
g15
NtRp1799
(dp1800
g18
I1
sg19
I0
sg20
I9
sg21
I0
sg22
I0
sg23
I0
sg24
I0
sbssg25
S'\xf2\xd1d\x96\xae%F\x8d\x93\xbe\t\xe9\x82Jc\x10'
p1801
ssS'_home_rawdata_Envs_venv_lib_python2_7_site-packages_selenium_webdriver_safari_webdriver'
p1802
(dp1803
g6
(dp1804
g8
S'_home_rawdata_Envs_venv_lib_python2_7_site-packages_selenium_webdriver_safari_webdriver.html'
p1805
sg10
S'/home/rawdata/Envs/venv/lib/python2.7/site-packages/selenium/webdriver/safari/webdriver'
p1806
sg12
g13
(g14
g15
NtRp1807
(dp1808
g18
I1
sg19
I0
sg20
I26
sg21
I0
sg22
I0
sg23
I14
sg24
I0
sbssg25
S'^\xafG\xed15\x1ff\\V\x82\x0b@\xff\xe5A'
p1809
ssS'_home_rawdata_Envs_venv_lib_python2_7_site-packages_django_test_html'
p1810
(dp1811
g6
(dp1812
g8
S'_home_rawdata_Envs_venv_lib_python2_7_site-packages_django_test_html.html'
p1813
sg10
S'/home/rawdata/Envs/venv/lib/python2.7/site-packages/django/test/html'
p1814
sg12
g13
(g14
g15
NtRp1815
(dp1816
g18
I1
sg19
I0
sg20
I167
sg21
I0
sg22
I0
sg23
I128
sg24
I0
sbssg25
S'\xd4\xe6\xc8-\xa5\x9f1[\xb3\xd4\xfc{(3\xa6\xd0'
p1817
ssS'_home_rawdata_Envs_venv_lib_python2_7_site-packages_django_filters_filterset'
p1818
(dp1819
g6
(dp1820
g8
S'_home_rawdata_Envs_venv_lib_python2_7_site-packages_django_filters_filterset.html'
p1821
sg10
S'/home/rawdata/Envs/venv/lib/python2.7/site-packages/django_filters/filterset'
p1822
sg12
g13
(g14
g15
NtRp1823
(dp1824
g18
I1
sg19
I0
sg20
I237
sg21
I6
sg22
I0
sg23
I172
sg24
I0
sbssg25
S"\xf3\x19\xda6y7\xc2\xfd\xa9\x98L\x96S'G/"
p1825
ssS'_home_rawdata_Envs_venv_lib_python2_7_site-packages_rest_framework_utils_serializer_helpers'
p1826
(dp1827
g6
(dp1828
g8
S'_home_rawdata_Envs_venv_lib_python2_7_site-packages_rest_framework_utils_serializer_helpers.html'
p1829
sg10
S'/home/rawdata/Envs/venv/lib/python2.7/site-packages/rest_framework/utils/serializer_helpers'
p1830
sg12
g13
(g14
g15
NtRp1831
(dp1832
g18
I1
sg19
I0
sg20
I61
sg21
I0
sg22
I0
sg23
I33
sg24
I0
sbssg25
S'f%\xda\xd9\x12\x99\xd0Y\xb4\xe2\x9b\xc9z2\xf5\xd9'
p1833
ssS'_home_rawdata_Envs_venv_lib_python2_7_site-packages_rest_framework_utils_encoders'
p1834
(dp1835
g6
(dp1836
g8
S'_home_rawdata_Envs_venv_lib_python2_7_site-packages_rest_framework_utils_encoders.html'
p1837
sg10
S'/home/rawdata/Envs/venv/lib/python2.7/site-packages/rest_framework/utils/encoders'
p1838
sg12
g13
(g14
g15
NtRp1839
(dp1840
g18
I1
sg19
I0
sg20
I48
sg21
I0
sg22
I0
sg23
I36
sg24
I0
sbssg25
S'\x15\xb4\xc1\xbb\xd8\xfb\xf0J\x8e\xcb\xec\xb6c\x0bWY'
p1841
ssS'_home_rawdata_Envs_venv_lib_python2_7_site-packages_django_db_backends___init__'
p1842
(dp1843
g6
(dp1844
g8
S'_home_rawdata_Envs_venv_lib_python2_7_site-packages_django_db_backends___init__.html'
p1845
sg10
S'/home/rawdata/Envs/venv/lib/python2.7/site-packages/django/db/backends/__init__'
p1846
sg12
g13
(g14
g15
NtRp1847
(dp1848
g18
I1
sg19
I0
sg20
I609
sg21
I0
sg22
I0
sg23
I251
sg24
I0
sbssg25
S'\xfdhC\xf8h\x8d\xa9\x83\xa7n\xa0\x88\xde\x14[\x8a'
p1849
ssS'_home_rawdata_Envs_venv_lib_python2_7_site-packages_django_contrib_admin_checks'
p1850
(dp1851
g6
(dp1852
g8
S'_home_rawdata_Envs_venv_lib_python2_7_site-packages_django_contrib_admin_checks.html'
p1853
sg10
S'/home/rawdata/Envs/venv/lib/python2.7/site-packages/django/contrib/admin/checks'
p1854
sg12
g13
(g14
g15
NtRp1855
(dp1856
g18
I1
sg19
I0
sg20
I399
sg21
I0
sg22
I0
sg23
I173
sg24
I0
sbssg25
S'J \xae\xd9\xefh\x81\x0bY\xd6\x18e\x90\xdaB\xcf'
p1857
ssS'apps___init__'
p1858
(dp1859
g6
(dp1860
g8
S'apps___init__.html'
p1861
sg10
S'apps/__init__'
p1862
sg12
g13
(g14
g15
NtRp1863
(dp1864
g18
I1
sg19
I0
sg20
I0
sg21
I0
sg22
I0
sg23
I0
sg24
I0
sbssg25
S'\xb0\xc8pN\xaf>\xa0\xbaz\x144\xe0A9\xb8?'
p1865
ssS'_home_rawdata_Envs_venv_lib_python2_7_site-packages_django_core_management_commands_migrate'
p1866
(dp1867
g6
(dp1868
g8
S'_home_rawdata_Envs_venv_lib_python2_7_site-packages_django_core_management_commands_migrate.html'
p1869
sg10
S'/home/rawdata/Envs/venv/lib/python2.7/site-packages/django/core/management/commands/migrate'
p1870
sg12
g13
(g14
g15
NtRp1871
(dp1872
g18
I1
sg19
I0
sg20
I214
sg21
I0
sg22
I0
sg23
I110
sg24
I0
sbssg25
S'r(\x8d\x94\x8bCD.\xd9\x93\xd1\xcc\xf0)&\x13'
p1873
ssS'_home_rawdata_Envs_venv_lib_python2_7_site-packages_model_mommy_exceptions'
p1874
(dp1875
g365
(dp1876
g367
S'_home_rawdata_Envs_venv_lib_python2_7_site-packages_model_mommy_exceptions.html'
p1877
sg369
S'/home/rawdata/Envs/venv/lib/python2.7/site-packages/model_mommy/exceptions'
p1878
sg371
g13
(g14
g15
NtRp1879
(dp1880
g18
I1
sg19
I0
sg20
I10
sg21
I0
sg22
I0
sg23
I0
sg24
I0
sbssg374
S'D\xcfH\x05\xa7IC\xb3lX\x92\xf4\t\x12\xf9\x88'
p1881
ssS'_home_rawdata_Envs_venv_lib_python2_7_site-packages_django_core_checks___init__'
p1882
(dp1883
g6
(dp1884
g8
S'_home_rawdata_Envs_venv_lib_python2_7_site-packages_django_core_checks___init__.html'
p1885
sg10
S'/home/rawdata/Envs/venv/lib/python2.7/site-packages/django/core/checks/__init__'
p1886
sg12
g13
(g14
g15
NtRp1887
(dp1888
g18
I1
sg19
I0
sg20
I7
sg21
I0
sg22
I0
sg23
I0
sg24
I0
sbssg25
S'\tZJ\x14v\xbc\xe6\xab\xb1\xfcx\xf4\xaa>\xec\xfe'
p1889
ssS'_home_rawdata_Envs_venv_lib_python2_7_site-packages_django_middleware_cache'
p1890
(dp1891
g6
(dp1892
g8
S'_home_rawdata_Envs_venv_lib_python2_7_site-packages_django_middleware_cache.html'
p1893
sg10
S'/home/rawdata/Envs/venv/lib/python2.7/site-packages/django/middleware/cache'
p1894
sg12
g13
(g14
g15
NtRp1895
(dp1896
g18
I1
sg19
I0
sg20
I92
sg21
I0
sg22
I0
sg23
I77
sg24
I0
sbssg25
S'T\x86\x1f\xf9\xa3\x17\xaeSF\xdd\x90\xa5\x81v\xc9\xee'
p1897
ssS'_home_rawdata_Envs_venv_lib_python2_7_site-packages_django_db_models_fields_proxy'
p1898
(dp1899
g6
(dp1900
g8
S'_home_rawdata_Envs_venv_lib_python2_7_site-packages_django_db_models_fields_proxy.html'
p1901
sg10
S'/home/rawdata/Envs/venv/lib/python2.7/site-packages/django/db/models/fields/proxy'
p1902
sg12
g13
(g14
g15
NtRp1903
(dp1904
g18
I1
sg19
I0
sg20
I10
sg21
I0
sg22
I0
sg23
I6
sg24
I0
sbssg25
S'\xdfIF\x9a8\x04\x87\x8d\x99=\xbek\xbf\xd0\x85\xf5'
p1905
ssS'_home_rawdata_Envs_venv_lib_python2_7_site-packages_django_filters_fields'
p1906
(dp1907
g6
(dp1908
g8
S'_home_rawdata_Envs_venv_lib_python2_7_site-packages_django_filters_fields.html'
p1909
sg10
S'/home/rawdata/Envs/venv/lib/python2.7/site-packages/django_filters/fields'
p1910
sg12
g13
(g14
g15
NtRp1911
(dp1912
g18
I1
sg19
I0
sg20
I26
sg21
I0
sg22
I0
sg23
I13
sg24
I0
sbssg25
S'\xca\x06\x88\xea^\xa4\x1cG\xd3\x7f\x88\xf9i\xe8\x98A'
p1913
ssS'_home_rawdata_Envs_venv_lib_python2_7_site-packages_django_db_migrations_writer'
p1914
(dp1915
g6
(dp1916
g8
S'_home_rawdata_Envs_venv_lib_python2_7_site-packages_django_db_migrations_writer.html'
p1917
sg10
S'/home/rawdata/Envs/venv/lib/python2.7/site-packages/django/db/migrations/writer'
p1918
sg12
g13
(g14
g15
NtRp1919
(dp1920
g18
I1
sg19
I0
sg20
I273
sg21
I0
sg22
I0
sg23
I232
sg24
I0
sbssg25
S'\xf2\xf3\x16P\xd2\xaf\xca\x10H\x9e\xd9\x83d^\xfc]'
p1921
ssS'_home_rawdata_Envs_venv_lib_python2_7_site-packages_django_utils_safestring'
p1922
(dp1923
g6
(dp1924
g8
S'_home_rawdata_Envs_venv_lib_python2_7_site-packages_django_utils_safestring.html'
p1925
sg10
S'/home/rawdata/Envs/venv/lib/python2.7/site-packages/django/utils/safestring'
p1926
sg12
g13
(g14
g15
NtRp1927
(dp1928
g18
I1
sg19
I0
sg20
I63
sg21
I0
sg22
I0
sg23
I34
sg24
I0
sbssg25
S'\xba\x1e<\xbd\xd7\x98|\x81h\xd9y\xd9\xe79\xf8e'
p1929
ssS'_home_rawdata_Envs_venv_lib_python2_7_site-packages_django_shortcuts'
p1930
(dp1931
g6
(dp1932
g8
S'_home_rawdata_Envs_venv_lib_python2_7_site-packages_django_shortcuts.html'
p1933
sg10
S'/home/rawdata/Envs/venv/lib/python2.7/site-packages/django/shortcuts'
p1934
sg12
g13
(g14
g15
NtRp1935
(dp1936
g18
I1
sg19
I0
sg20
I68
sg21
I0
sg22
I0
sg23
I51
sg24
I0
sbssg25
S'Wc\xaa\xc0\x8dK\xb1U$u\x01\xeclp]\xf3'
p1937
ssS'_home_rawdata_Envs_venv_lib_python2_7_site-packages_django_middleware_csrf'
p1938
(dp1939
g6
(dp1940
g8
S'_home_rawdata_Envs_venv_lib_python2_7_site-packages_django_middleware_csrf.html'
p1941
sg10
S'/home/rawdata/Envs/venv/lib/python2.7/site-packages/django/middleware/csrf'
p1942
sg12
g13
(g14
g15
NtRp1943
(dp1944
g18
I1
sg19
I0
sg20
I81
sg21
I0
sg22
I0
sg23
I56
sg24
I0
sbssg25
S'\x9f\xbaI7\x18\xbd\xd1\x91\xea\xb9\r\x8ec\xc2\x9a2'
p1945
ssS'_home_rawdata_Envs_venv_lib_python2_7_site-packages_django_utils_translation_trans_real'
p1946
(dp1947
g6
(dp1948
g8
S'_home_rawdata_Envs_venv_lib_python2_7_site-packages_django_utils_translation_trans_real.html'
p1949
sg10
S'/home/rawdata/Envs/venv/lib/python2.7/site-packages/django/utils/translation/trans_real'
p1950
sg12
g13
(g14
g15
NtRp1951
(dp1952
g18
I1
sg19
I0
sg20
I432
sg21
I0
sg22
I0
sg23
I288
sg24
I0
sbssg25
S'\xa2\x95A\xdd\xaa\xd8\xd3\x9d\x0e\x16q\xd5\x001\x85\x89'
p1953
ssS'_home_rawdata_Envs_venv_lib_python2_7_site-packages_crispy_forms_models'
p1954
(dp1955
g6
(dp1956
g8
S'_home_rawdata_Envs_venv_lib_python2_7_site-packages_crispy_forms_models.html'
p1957
sg10
S'/home/rawdata/Envs/venv/lib/python2.7/site-packages/crispy_forms/models'
p1958
sg12
g13
(g14
g15
NtRp1959
(dp1960
g18
I1
sg19
I0
sg20
I0
sg21
I0
sg22
I0
sg23
I0
sg24
I0
sbssg25
S'\xb0\xc8pN\xaf>\xa0\xbaz\x144\xe0A9\xb8?'
p1961
ssS'_home_rawdata_Envs_venv_lib_python2_7_site-packages_django_db_migrations_executor'
p1962
(dp1963
g6
(dp1964
g8
S'_home_rawdata_Envs_venv_lib_python2_7_site-packages_django_db_migrations_executor.html'
p1965
sg10
S'/home/rawdata/Envs/venv/lib/python2.7/site-packages/django/db/migrations/executor'
p1966
sg12
g13
(g14
g15
NtRp1967
(dp1968
g18
I1
sg19
I0
sg20
I94
sg21
I0
sg22
I0
sg23
I39
sg24
I0
sbssg25
S'\xac\x08cW\xc8\xac\xda\xc7\x80\xe0\xf0\xb9;v\xe0`'
p1969
ssS'_home_rawdata_Envs_venv_lib_python2_7_site-packages_django_views_generic_edit'
p1970
(dp1971
g6
(dp1972
g8
S'_home_rawdata_Envs_venv_lib_python2_7_site-packages_django_views_generic_edit.html'
p1973
sg10
S'/home/rawdata/Envs/venv/lib/python2.7/site-packages/django/views/generic/edit'
p1974
sg12
g13
(g14
g15
NtRp1975
(dp1976
g18
I1
sg19
I0
sg20
I113
sg21
I0
sg22
I0
sg23
I62
sg24
I0
sbssg25
S'\xeb\x1f\xe7\x8bw\x0c\xbdt\x98.\x88\xff\x9aH\x01\xad'
p1977
ssS'_home_rawdata_Envs_venv_lib_python2_7_site-packages_django_contrib_admin_apps'
p1978
(dp1979
g6
(dp1980
g8
S'_home_rawdata_Envs_venv_lib_python2_7_site-packages_django_contrib_admin_apps.html'
p1981
sg10
S'/home/rawdata/Envs/venv/lib/python2.7/site-packages/django/contrib/admin/apps'
p1982
sg12
g13
(g14
g15
NtRp1983
(dp1984
g18
I1
sg19
I0
sg20
I13
sg21
I0
sg22
I0
sg23
I0
sg24
I0
sbssg25
S'\xc8\x8c\xbdM\x19\xc6Q\xc2\xbf\xc0z\x8e\xa1\xcc\x10{'
p1985
ssS'_home_rawdata_Envs_venv_lib_python2_7_site-packages_selenium_webdriver_chrome_options'
p1986
(dp1987
g6
(dp1988
g8
S'_home_rawdata_Envs_venv_lib_python2_7_site-packages_selenium_webdriver_chrome_options.html'
p1989
sg10
S'/home/rawdata/Envs/venv/lib/python2.7/site-packages/selenium/webdriver/chrome/options'
p1990
sg12
g13
(g14
g15
NtRp1991
(dp1992
g18
I1
sg19
I0
sg20
I57
sg21
I0
sg22
I0
sg23
I40
sg24
I0
sbssg25
S'U\xc3u1#\x0f\x8d,\xa8\xff\xaf\xe1\xa9\x9b\xaa\xe0'
p1993
ssS'_home_rawdata_Envs_venv_lib_python2_7_site-packages_django_db_backends_sqlite3_introspection'
p1994
(dp1995
g6
(dp1996
g8
S'_home_rawdata_Envs_venv_lib_python2_7_site-packages_django_db_backends_sqlite3_introspection.html'
p1997
sg10
S'/home/rawdata/Envs/venv/lib/python2.7/site-packages/django/db/backends/sqlite3/introspection'
p1998
sg12
g13
(g14
g15
NtRp1999
(dp2000
g18
I1
sg19
I0
sg20
I111
sg21
I0
sg22
I0
sg23
I92
sg24
I0
sbssg25
S'Q\xb4Vi\x12m\xf9b-\x01\x00\xa31\xb8\xf3\xec'
p2001
ssS'apps_questions_tests'
p2002
(dp2003
g6
(dp2004
g8
S'apps_questions_tests.html'
p2005
sg10
S'apps/questions/tests'
p2006
sg12
g13
(g14
g15
NtRp2007
(dp2008
g18
I1
sg19
I0
sg20
I4
sg21
I0
sg22
I0
sg23
I0
sg24
I0
sbssg25
S'\x16\xf1\x14\xff\x111\xd1)kV\xdf:A\xca\x94\x08'
p2009
ssS'_home_rawdata_Envs_venv_lib_python2_7_site-packages_selenium_webdriver_ie___init__'
p2010
(dp2011
g6
(dp2012
g8
S'_home_rawdata_Envs_venv_lib_python2_7_site-packages_selenium_webdriver_ie___init__.html'
p2013
sg10
S'/home/rawdata/Envs/venv/lib/python2.7/site-packages/selenium/webdriver/ie/__init__'
p2014
sg12
g13
(g14
g15
NtRp2015
(dp2016
g18
I1
sg19
I0
sg20
I0
sg21
I0
sg22
I0
sg23
I0
sg24
I0
sbssg25
S'\xe2\x8a\x1a\xd9>\xfb\\0\x12\xd5#I\xb4\x0bk\xab'
p2017
ssS'_home_rawdata_Envs_venv_lib_python2_7_site-packages_django_core_files_utils'
p2018
(dp2019
g6
(dp2020
g8
S'_home_rawdata_Envs_venv_lib_python2_7_site-packages_django_core_files_utils.html'
p2021
sg10
S'/home/rawdata/Envs/venv/lib/python2.7/site-packages/django/core/files/utils'
p2022
sg12
g13
(g14
g15
NtRp2023
(dp2024
g18
I1
sg19
I0
sg20
I19
sg21
I0
sg22
I0
sg23
I1
sg24
I0
sbssg25
S'\x91@)\xe4(\x81\xd6\xb8\x9b\x16\xc4\xeeh\x11e\xff'
p2025
ssS'_home_rawdata_Envs_venv_lib_python2_7_site-packages_django_contrib_messages_apps'
p2026
(dp2027
g6
(dp2028
g8
S'_home_rawdata_Envs_venv_lib_python2_7_site-packages_django_contrib_messages_apps.html'
p2029
sg10
S'/home/rawdata/Envs/venv/lib/python2.7/site-packages/django/contrib/messages/apps'
p2030
sg12
g13
(g14
g15
NtRp2031
(dp2032
g18
I1
sg19
I0
sg20
I5
sg21
I0
sg22
I0
sg23
I0
sg24
I0
sbssg25
S'c0\xe2f,\xd3\x94\x1a\x10S\x16\x81_%\xf41'
p2033
ssS'apps_questions_migrations___init__'
p2034
(dp2035
g6
(dp2036
g8
S'apps_questions_migrations___init__.html'
p2037
sg10
S'apps/questions/migrations/__init__'
p2038
sg12
g13
(g14
g15
NtRp2039
(dp2040
g18
I1
sg19
I0
sg20
I0
sg21
I0
sg22
I0
sg23
I0
sg24
I0
sbssg25
S'\xb0\xc8pN\xaf>\xa0\xbaz\x144\xe0A9\xb8?'
p2041
ssS'apps_accounts_tests_test_selenium'
p2042
(dp2043
g365
(dp2044
g367
S'apps_accounts_tests_test_selenium.html'
p2045
sg369
S'apps/accounts/tests/test_selenium'
p2046
sg371
g13
(g14
g15
NtRp2047
(dp2048
g18
I1
sg19
I0
sg20
I45
sg21
I0
sg22
I0
sg23
I1
sg24
I0
sbssg374
S'fT(\x19\xc1N\xadu\xb2\x02/n*/\xe8r'
p2049
ssS'_home_rawdata_Envs_venv_lib_python2_7_site-packages_django_db_models_sql_query'
p2050
(dp2051
g6
(dp2052
g8
S'_home_rawdata_Envs_venv_lib_python2_7_site-packages_django_db_models_sql_query.html'
p2053
sg10
S'/home/rawdata/Envs/venv/lib/python2.7/site-packages/django/db/models/sql/query'
p2054
sg12
g13
(g14
g15
NtRp2055
(dp2056
g18
I1
sg19
I0
sg20
I1063
sg21
I0
sg22
I0
sg23
I605
sg24
I0
sbssg25
S'\x1f*2h\x8a\xcekJ\x83D\xbex\xa8\xf7~\x7f'
p2057
ssS'_home_rawdata_Envs_venv_lib_python2_7_site-packages_selenium_webdriver_common_touch_actions'
p2058
(dp2059
g6
(dp2060
g8
S'_home_rawdata_Envs_venv_lib_python2_7_site-packages_selenium_webdriver_common_touch_actions.html'
p2061
sg10
S'/home/rawdata/Envs/venv/lib/python2.7/site-packages/selenium/webdriver/common/touch_actions'
p2062
sg12
g13
(g14
g15
NtRp2063
(dp2064
g18
I1
sg19
I0
sg20
I42
sg21
I0
sg22
I0
sg23
I26
sg24
I0
sbssg25
S"\xcc\xd1\xe8a\x9a^\xd6\xd5j%Fj\xfe\x9f'-"
p2065
ssS'_home_rawdata_Envs_venv_lib_python2_7_site-packages_markdown___init__'
p2066
(dp2067
g6
(dp2068
g8
S'_home_rawdata_Envs_venv_lib_python2_7_site-packages_markdown___init__.html'
p2069
sg10
S'/home/rawdata/Envs/venv/lib/python2.7/site-packages/markdown/__init__'
p2070
sg12
g13
(g14
g15
NtRp2071
(dp2072
g18
I1
sg19
I0
sg20
I194
sg21
I7
sg22
I0
sg23
I160
sg24
I0
sbssg25
S'\xe7\x06e2\xccjO\x92\x8cx\xed\n\x12{W\x0b'
p2073
ssS'_home_rawdata_Envs_venv_lib_python2_7_site-packages_django_contrib_auth_checks'
p2074
(dp2075
g6
(dp2076
g8
S'_home_rawdata_Envs_venv_lib_python2_7_site-packages_django_contrib_auth_checks.html'
p2077
sg10
S'/home/rawdata/Envs/venv/lib/python2.7/site-packages/django/contrib/auth/checks'
p2078
sg12
g13
(g14
g15
NtRp2079
(dp2080
g18
I1
sg19
I0
sg20
I16
sg21
I0
sg22
I0
sg23
I5
sg24
I0
sbssg25
S'\xea\x94\xafu\x03\xf8\x9b0\xd1\x088\xcc\xd5y\x9bL'
p2081
ssS'_home_rawdata_Envs_venv_lib_python2_7_site-packages_selenium_webdriver_phantomjs___init__'
p2082
(dp2083
g6
(dp2084
g8
S'_home_rawdata_Envs_venv_lib_python2_7_site-packages_selenium_webdriver_phantomjs___init__.html'
p2085
sg10
S'/home/rawdata/Envs/venv/lib/python2.7/site-packages/selenium/webdriver/phantomjs/__init__'
p2086
sg12
g13
(g14
g15
NtRp2087
(dp2088
g18
I1
sg19
I0
sg20
I0
sg21
I0
sg22
I0
sg23
I0
sg24
I0
sbssg25
S"0U\xb6\xab'\xdd8F\x8c\x1d\xfe`\xceOH\x06"
p2089
ssS'_home_rawdata_Envs_venv_lib_python2_7_site-packages_django_db_migrations_operations_fields'
p2090
(dp2091
g6
(dp2092
g8
S'_home_rawdata_Envs_venv_lib_python2_7_site-packages_django_db_migrations_operations_fields.html'
p2093
sg10
S'/home/rawdata/Envs/venv/lib/python2.7/site-packages/django/db/migrations/operations/fields'
p2094
sg12
g13
(g14
g15
NtRp2095
(dp2096
g18
I1
sg19
I0
sg20
I128
sg21
I0
sg22
I0
sg23
I62
sg24
I0
sbssg25
S'"\xe8\xa4N\xea\xc5i\xdc.bx\x82\x15\xf0%\xa8'
p2097
ssS'_home_rawdata_Envs_venv_lib_python2_7_site-packages_django_utils_html_parser'
p2098
(dp2099
g6
(dp2100
g8
S'_home_rawdata_Envs_venv_lib_python2_7_site-packages_django_utils_html_parser.html'
p2101
sg10
S'/home/rawdata/Envs/venv/lib/python2.7/site-packages/django/utils/html_parser'
p2102
sg12
g13
(g14
g15
NtRp2103
(dp2104
g18
I1
sg19
I0
sg20
I86
sg21
I0
sg22
I0
sg23
I77
sg24
I0
sbssg25
S"\x03\xf6e\xc9'R\xa3B\xa6\x0f\\m\x04\xc0\xb6\xf8"
p2105
ssS'_home_rawdata_Envs_venv_lib_python2_7_site-packages_django_template___init__'
p2106
(dp2107
g6
(dp2108
g8
S'_home_rawdata_Envs_venv_lib_python2_7_site-packages_django_template___init__.html'
p2109
sg10
S'/home/rawdata/Envs/venv/lib/python2.7/site-packages/django/template/__init__'
p2110
sg12
g13
(g14
g15
NtRp2111
(dp2112
g18
I1
sg19
I0
sg20
I6
sg21
I0
sg22
I0
sg23
I0
sg24
I0
sbssg25
S'm$\x1etj_\xaf\n\xf1\x02\xc3a\x19\x00c\x99'
p2113
ssS'_home_rawdata_Envs_venv_lib_python2_7_site-packages_django_db_models_sql_subqueries'
p2114
(dp2115
g6
(dp2116
g8
S'_home_rawdata_Envs_venv_lib_python2_7_site-packages_django_db_models_sql_subqueries.html'
p2117
sg10
S'/home/rawdata/Envs/venv/lib/python2.7/site-packages/django/db/models/sql/subqueries'
p2118
sg12
g13
(g14
g15
NtRp2119
(dp2120
g18
I1
sg19
I0
sg20
I143
sg21
I0
sg22
I0
sg23
I92
sg24
I0
sbssg25
S'\xca\x87\x177b\xf4\x83\xea\x9a\xdeT\xad>3\xe7\xc9'
p2121
ssS'_home_rawdata_Envs_venv_lib_python2_7_site-packages_django_core_files_locks'
p2122
(dp2123
g6
(dp2124
g8
S'_home_rawdata_Envs_venv_lib_python2_7_site-packages_django_core_files_locks.html'
p2125
sg10
S'/home/rawdata/Envs/venv/lib/python2.7/site-packages/django/core/files/locks'
p2126
sg12
g13
(g14
g15
NtRp2127
(dp2128
g18
I1
sg19
I0
sg20
I57
sg21
I0
sg22
I0
sg23
I46
sg24
I0
sbssg25
S'F\xa8\xff]\xbc\xf7a\xeb\xe5\xcf\xddW\x994\xaeP'
p2129
ssS'_home_rawdata_Envs_venv_lib_python2_7_site-packages_django_template_loaders_cached'
p2130
(dp2131
g6
(dp2132
g8
S'_home_rawdata_Envs_venv_lib_python2_7_site-packages_django_template_loaders_cached.html'
p2133
sg10
S'/home/rawdata/Envs/venv/lib/python2.7/site-packages/django/template/loaders/cached'
p2134
sg12
g13
(g14
g15
NtRp2135
(dp2136
g18
I1
sg19
I0
sg20
I57
sg21
I0
sg22
I0
sg23
I45
sg24
I0
sbssg25
S'$Q\xc6N\x9b\xfaA\xf8<\xb8t0t\x0c\xe3\xce'
p2137
ssS'_home_rawdata_Envs_venv_lib_python2_7_site-packages_django_db_models_lookups'
p2138
(dp2139
g6
(dp2140
g8
S'_home_rawdata_Envs_venv_lib_python2_7_site-packages_django_db_models_lookups.html'
p2141
sg10
S'/home/rawdata/Envs/venv/lib/python2.7/site-packages/django/db/models/lookups'
p2142
sg12
g13
(g14
g15
NtRp2143
(dp2144
g18
I1
sg19
I0
sg20
I254
sg21
I0
sg22
I0
sg23
I85
sg24
I0
sbssg25
S'U&?\xa5\xbdM\xcdT\x01j\xe1I\x94H\xec\x14'
p2145
ssS'_home_rawdata_Envs_venv_lib_python2_7_site-packages_django_db_migrations_loader'
p2146
(dp2147
g6
(dp2148
g8
S'_home_rawdata_Envs_venv_lib_python2_7_site-packages_django_db_migrations_loader.html'
p2149
sg10
S'/home/rawdata/Envs/venv/lib/python2.7/site-packages/django/db/migrations/loader'
p2150
sg12
g13
(g14
g15
NtRp2151
(dp2152
g18
I1
sg19
I0
sg20
I165
sg21
I0
sg22
I0
sg23
I54
sg24
I0
sbssg25
S'\xd1?/\x07K\n%\xd8\x9f\xdcD\xe8\x045\xecO'
p2153
ssS'_home_rawdata_Envs_venv_lib_python2_7_site-packages_django_core_serializers_json'
p2154
(dp2155
g6
(dp2156
g8
S'_home_rawdata_Envs_venv_lib_python2_7_site-packages_django_core_serializers_json.html'
p2157
sg10
S'/home/rawdata/Envs/venv/lib/python2.7/site-packages/django/core/serializers/json'
p2158
sg12
g13
(g14
g15
NtRp2159
(dp2160
g18
I1
sg19
I0
sg20
I76
sg21
I0
sg22
I0
sg23
I36
sg24
I0
sbssg25
S'=\xd5y\x8eRJQ\xd9E\xe1\x99\x1f\xb68\rD'
p2161
ssS'_home_rawdata_Envs_venv_lib_python2_7_site-packages_django_db_models_fields___init__'
p2162
(dp2163
g6
(dp2164
g367
S'_home_rawdata_Envs_venv_lib_python2_7_site-packages_django_db_models_fields___init__.html'
p2165
sg369
S'/home/rawdata/Envs/venv/lib/python2.7/site-packages/django/db/models/fields/__init__'
p2166
sg371
g13
(g14
g15
NtRp2167
(dp2168
g18
I1
sg19
I0
sg20
I1138
sg21
I0
sg22
I0
sg23
I543
sg24
I0
sbssg25
S'\x9c~b\x1f\x1e\xa9\xf1\xaf}G\xd3\xf0\xf5\xfa\x84o'
p2169
ssS'_home_rawdata_Envs_venv_lib_python2_7_site-packages_django_contrib_admin_filters'
p2170
(dp2171
g6
(dp2172
g8
S'_home_rawdata_Envs_venv_lib_python2_7_site-packages_django_contrib_admin_filters.html'
p2173
sg10
S'/home/rawdata/Envs/venv/lib/python2.7/site-packages/django/contrib/admin/filters'
p2174
sg12
g13
(g14
g15
NtRp2175
(dp2176
g18
I1
sg19
I0
sg20
I188
sg21
I0
sg22
I0
sg23
I127
sg24
I0
sbssg25
S'%\x1aQM\xbd\x86\x9e\x10\xcf\x19D&\x8b=o\xca'
p2177
ssS'exam_site_settings'
p2178
(dp2179
g6
(dp2180
g367
S'exam_site_settings.html'
p2181
sg369
S'exam_site/settings'
p2182
sg371
g13
(g14
g15
NtRp2183
(dp2184
g18
I1
sg19
I0
sg20
I28
sg21
I0
sg22
I0
sg23
I1
sg24
I0
sbssg25
S'WsP$/\xdfZ\x1d\xeb\xc6D\xe9\xd0!\x93\x04'
p2185
ssS'apps_accounts_tests_test_user'
p2186
(dp2187
g365
(dp2188
g367
S'apps_accounts_tests_test_user.html'
p2189
sg369
S'apps/accounts/tests/test_user'
p2190
sg371
g13
(g14
g15
NtRp2191
(dp2192
g18
I1
sg19
I0
sg20
I9
sg21
I0
sg22
I0
sg23
I0
sg24
I0
sbssg374
S'\xaf\xe0\xc1\xef\xa5\x03:&y\x05\xf8"\xdc(^\xc8'
p2193
ssS'apps_exams_migrations_0001_initial'
p2194
(dp2195
g6
(dp2196
g8
S'apps_exams_migrations_0001_initial.html'
p2197
sg10
S'apps/exams/migrations/0001_initial'
p2198
sg12
g13
(g14
g15
NtRp2199
(dp2200
g18
I1
sg19
I0
sg20
I6
sg21
I0
sg22
I0
sg23
I0
sg24
I0
sbssg25
S'\x12\xf7V\xff\x86\xf5\xb6\xe1\xc9\xedw\xd9|\xf1\x7f\x95'
p2201
ssS'_home_rawdata_Envs_venv_lib_python2_7_site-packages_selenium_webdriver_remote_webelement'
p2202
(dp2203
g6
(dp2204
g8
S'_home_rawdata_Envs_venv_lib_python2_7_site-packages_selenium_webdriver_remote_webelement.html'
p2205
sg10
S'/home/rawdata/Envs/venv/lib/python2.7/site-packages/selenium/webdriver/remote/webelement'
p2206
sg12
g13
(g14
g15
NtRp2207
(dp2208
g18
I1
sg19
I0
sg20
I151
sg21
I0
sg22
I0
sg23
I81
sg24
I0
sbssg25
S'bo8 o\xc6\xe9<2\xc5\x174\x86|J\xab'
p2209
ssS'_home_rawdata_Envs_venv_lib_python2_7_site-packages_django_contrib_auth_migrations___init__'
p2210
(dp2211
g6
(dp2212
g8
S'_home_rawdata_Envs_venv_lib_python2_7_site-packages_django_contrib_auth_migrations___init__.html'
p2213
sg10
S'/home/rawdata/Envs/venv/lib/python2.7/site-packages/django/contrib/auth/migrations/__init__'
p2214
sg12
g13
(g14
g15
NtRp2215
(dp2216
g18
I1
sg19
I0
sg20
I0
sg21
I0
sg22
I0
sg23
I0
sg24
I0
sbssg25
S'\xb0\xc8pN\xaf>\xa0\xbaz\x144\xe0A9\xb8?'
p2217
ssS'_home_rawdata_Envs_venv_lib_python2_7_site-packages_django_contrib_messages___init__'
p2218
(dp2219
g6
(dp2220
g8
S'_home_rawdata_Envs_venv_lib_python2_7_site-packages_django_contrib_messages___init__.html'
p2221
sg10
S'/home/rawdata/Envs/venv/lib/python2.7/site-packages/django/contrib/messages/__init__'
p2222
sg12
g13
(g14
g15
NtRp2223
(dp2224
g18
I1
sg19
I0
sg20
I3
sg21
I0
sg22
I0
sg23
I0
sg24
I0
sbssg25
S'=\xbb\xec\x1b\xf4\xe6$\xf7Z\x0b\xa8\xdf\x11\x1c\xd3\xfa'
p2225
ssS'_home_rawdata_Envs_venv_lib_python2_7_site-packages_django_contrib_admin_widgets'
p2226
(dp2227
g6
(dp2228
g8
S'_home_rawdata_Envs_venv_lib_python2_7_site-packages_django_contrib_admin_widgets.html'
p2229
sg10
S'/home/rawdata/Envs/venv/lib/python2.7/site-packages/django/contrib/admin/widgets'
p2230
sg12
g13
(g14
g15
NtRp2231
(dp2232
g18
I1
sg19
I0
sg20
I224
sg21
I0
sg22
I0
sg23
I154
sg24
I0
sbssg25
S'Z\x00(H\xe7\x90\x88A\xcdK\x98F\xa1\x19~i'
p2233
ssS'_home_rawdata_Envs_venv_lib_python2_7_site-packages_django_utils_log'
p2234
(dp2235
g6
(dp2236
g8
S'_home_rawdata_Envs_venv_lib_python2_7_site-packages_django_utils_log.html'
p2237
sg10
S'/home/rawdata/Envs/venv/lib/python2.7/site-packages/django/utils/log'
p2238
sg12
g13
(g14
g15
NtRp2239
(dp2240
g18
I1
sg19
I0
sg20
I65
sg21
I0
sg22
I0
sg23
I27
sg24
I0
sbssg25
S'\xcb\x9f\x06\xdb%\xffq\xafx\\\x0fx\xae\x03~\xa3'
p2241
ssS'_home_rawdata_Envs_venv_lib_python2_7_site-packages_django_db_migrations_operations_special'
p2242
(dp2243
g6
(dp2244
g8
S'_home_rawdata_Envs_venv_lib_python2_7_site-packages_django_db_migrations_operations_special.html'
p2245
sg10
S'/home/rawdata/Envs/venv/lib/python2.7/site-packages/django/db/migrations/operations/special'
p2246
sg12
g13
(g14
g15
NtRp2247
(dp2248
g18
I1
sg19
I0
sg20
I72
sg21
I0
sg22
I0
sg23
I49
sg24
I0
sbssg25
S'\xb0-\x1e\xf5u\xc6\x1f\xa5\xb3\x0fSR\xfd[\xfaA'
p2249
ssS'_home_rawdata_Envs_venv_lib_python2_7_site-packages_django_db_migrations_operations_base'
p2250
(dp2251
g6
(dp2252
g8
S'_home_rawdata_Envs_venv_lib_python2_7_site-packages_django_db_migrations_operations_base.html'
p2253
sg10
S'/home/rawdata/Envs/venv/lib/python2.7/site-packages/django/db/migrations/operations/base'
p2254
sg12
g13
(g14
g15
NtRp2255
(dp2256
g18
I1
sg19
I0
sg20
I33
sg21
I0
sg22
I0
sg23
I10
sg24
I0
sbssg25
S'\x06\xbe\xcc\x9e\xfes\xc1\xf0R>\x93\xb9N \x1b\xde'
p2257
ssS'_home_rawdata_Envs_venv_lib_python2_7_site-packages_django_contrib_sessions_backends_base'
p2258
(dp2259
g6
(dp2260
g8
S'_home_rawdata_Envs_venv_lib_python2_7_site-packages_django_contrib_sessions_backends_base.html'
p2261
sg10
S'/home/rawdata/Envs/venv/lib/python2.7/site-packages/django/contrib/sessions/backends/base'
p2262
sg12
g13
(g14
g15
NtRp2263
(dp2264
g18
I1
sg19
I0
sg20
I181
sg21
I0
sg22
I0
sg23
I120
sg24
I0
sbssg25
S'\xf28p\xe5Qj/:m\xdb\xc2\xb1\xe02}n'
p2265
ssS'_home_rawdata_Envs_venv_lib_python2_7_site-packages_selenium_webdriver_chrome_service'
p2266
(dp2267
g6
(dp2268
g8
S'_home_rawdata_Envs_venv_lib_python2_7_site-packages_selenium_webdriver_chrome_service.html'
p2269
sg10
S'/home/rawdata/Envs/venv/lib/python2.7/site-packages/selenium/webdriver/chrome/service'
p2270
sg12
g13
(g14
g15
NtRp2271
(dp2272
g18
I1
sg19
I0
sg20
I50
sg21
I0
sg22
I0
sg23
I39
sg24
I0
sbssg25
S'\x00\xf5\x1b\xed\x034b\xdc\xf1\xfe\xaa\xa1a\xdc\xc0\xcc'
p2273
ssS'_home_rawdata_Envs_venv_lib_python2_7_site-packages_django_contrib_auth_forms'
p2274
(dp2275
g6
(dp2276
g8
S'_home_rawdata_Envs_venv_lib_python2_7_site-packages_django_contrib_auth_forms.html'
p2277
sg10
S'/home/rawdata/Envs/venv/lib/python2.7/site-packages/django/contrib/auth/forms'
p2278
sg12
g13
(g14
g15
NtRp2279
(dp2280
g18
I1
sg19
I0
sg20
I189
sg21
I0
sg22
I0
sg23
I110
sg24
I0
sbssg25
S'\x08\x11}\x16\xeb\x86\xa3\xedT\xc9\xba\xe5\x1b\x0f9o'
p2281
ssS'_home_rawdata_Envs_venv_lib_python2_7_site-packages_selenium_webdriver_common___init__'
p2282
(dp2283
g6
(dp2284
g8
S'_home_rawdata_Envs_venv_lib_python2_7_site-packages_selenium_webdriver_common___init__.html'
p2285
sg10
S'/home/rawdata/Envs/venv/lib/python2.7/site-packages/selenium/webdriver/common/__init__'
p2286
sg12
g13
(g14
g15
NtRp2287
(dp2288
g18
I1
sg19
I0
sg20
I0
sg21
I0
sg22
I0
sg23
I0
sg24
I0
sbssg25
S'W\xed\xba.gR]] \xb4\x9c\x7f\xd5b\xe9\x83'
p2289
ssS'_home_rawdata_Envs_venv_lib_python2_7_site-packages_django_utils_baseconv'
p2290
(dp2291
g6
(dp2292
g8
S'_home_rawdata_Envs_venv_lib_python2_7_site-packages_django_utils_baseconv.html'
p2293
sg10
S'/home/rawdata/Envs/venv/lib/python2.7/site-packages/django/utils/baseconv'
p2294
sg12
g13
(g14
g15
NtRp2295
(dp2296
g18
I1
sg19
I0
sg20
I48
sg21
I0
sg22
I0
sg23
I25
sg24
I0
sbssg25
S'\xb9\x9eaD\x8d=\x88\x80N5+D\xfcID\x8e'
p2297
ssS'_home_rawdata_Envs_venv_lib_python2_7_site-packages_django_db_backends_signals'
p2298
(dp2299
g6
(dp2300
g8
S'_home_rawdata_Envs_venv_lib_python2_7_site-packages_django_db_backends_signals.html'
p2301
sg10
S'/home/rawdata/Envs/venv/lib/python2.7/site-packages/django/db/backends/signals'
p2302
sg12
g13
(g14
g15
NtRp2303
(dp2304
g18
I1
sg19
I0
sg20
I2
sg21
I0
sg22
I0
sg23
I0
sg24
I0
sbssg25
S'\xac\xe8\xc0\xe9\x8a\xd9d\xcc\x03\xc1\x89\xd4\xde\xa8x<'
p2305
ssS'_home_rawdata_Envs_venv_lib_python2_7_site-packages_django_core_checks_registry'
p2306
(dp2307
g6
(dp2308
g8
S'_home_rawdata_Envs_venv_lib_python2_7_site-packages_django_core_checks_registry.html'
p2309
sg10
S'/home/rawdata/Envs/venv/lib/python2.7/site-packages/django/core/checks/registry'
p2310
sg12
g13
(g14
g15
NtRp2311
(dp2312
g18
I1
sg19
I0
sg20
I36
sg21
I0
sg22
I0
sg23
I3
sg24
I0
sbssg25
S'\xcf\xa5\x81\xd4\x12\x83r\x89o\x19\x0e\x1ed\xee\xc5\xfe'
p2313
ssS'_home_rawdata_Envs_venv_lib_python2_7_site-packages_selenium_webdriver_safari___init__'
p2314
(dp2315
g6
(dp2316
g8
S'_home_rawdata_Envs_venv_lib_python2_7_site-packages_selenium_webdriver_safari___init__.html'
p2317
sg10
S'/home/rawdata/Envs/venv/lib/python2.7/site-packages/selenium/webdriver/safari/__init__'
p2318
sg12
g13
(g14
g15
NtRp2319
(dp2320
g18
I1
sg19
I0
sg20
I0
sg21
I0
sg22
I0
sg23
I0
sg24
I0
sbssg25
S'j\xe4%\xd6^\xf1W1\xb8\x1c\x8a\x7fj\xa9\x1d\xce'
p2321
ssS'_home_rawdata_Envs_venv_lib_python2_7_site-packages_django_forms_utils'
p2322
(dp2323
g6
(dp2324
g8
S'_home_rawdata_Envs_venv_lib_python2_7_site-packages_django_forms_utils.html'
p2325
sg10
S'/home/rawdata/Envs/venv/lib/python2.7/site-packages/django/forms/utils'
p2326
sg12
g13
(g14
g15
NtRp2327
(dp2328
g18
I1
sg19
I0
sg20
I90
sg21
I0
sg22
I0
sg23
I50
sg24
I0
sbssg25
S'\x85\x1d\xc8C\n\x17\\\x85cL\x9e\xebc\xcf\xed\xf3'
p2329
ssS'_home_rawdata_Envs_venv_lib_python2_7_site-packages_django_test_utils'
p2330
(dp2331
g6
(dp2332
g8
S'_home_rawdata_Envs_venv_lib_python2_7_site-packages_django_test_utils.html'
p2333
sg10
S'/home/rawdata/Envs/venv/lib/python2.7/site-packages/django/test/utils'
p2334
sg12
g13
(g14
g15
NtRp2335
(dp2336
g18
I1
sg19
I0
sg20
I301
sg21
I0
sg22
I0
sg23
I204
sg24
I0
sbssg25
S'1H\xc3\\\x04\x89U\x80\xe0\x8f\x8d\xfb#\xa7\x0f\xc2'
p2337
ssS'_home_rawdata_Envs_venv_lib_python2_7_site-packages_django_contrib_contenttypes_apps'
p2338
(dp2339
g6
(dp2340
g8
S'_home_rawdata_Envs_venv_lib_python2_7_site-packages_django_contrib_contenttypes_apps.html'
p2341
sg10
S'/home/rawdata/Envs/venv/lib/python2.7/site-packages/django/contrib/contenttypes/apps'
p2342
sg12
g13
(g14
g15
NtRp2343
(dp2344
g18
I1
sg19
I0
sg20
I9
sg21
I0
sg22
I0
sg23
I0
sg24
I0
sbssg25
S'@\tU\xe02i\xd0\x87\x87o\x96\xe8\xad\xd2\xcfj'
p2345
ssS'_home_rawdata_Envs_venv_lib_python2_7_site-packages_django_db_models_fields_subclassing'
p2346
(dp2347
g6
(dp2348
g8
S'_home_rawdata_Envs_venv_lib_python2_7_site-packages_django_db_models_fields_subclassing.html'
p2349
sg10
S'/home/rawdata/Envs/venv/lib/python2.7/site-packages/django/db/models/fields/subclassing'
p2350
sg12
g13
(g14
g15
NtRp2351
(dp2352
g18
I1
sg19
I0
sg20
I21
sg21
I0
sg22
I0
sg23
I14
sg24
I0
sbssg25
S'\x9a\x13\xd9\xdf4\x08\xd2\xebd\xab\x86M\xef\x16\xb1<'
p2353
ssS'_home_rawdata_Envs_venv_lib_python2_7_site-packages_django_core_wsgi'
p2354
(dp2355
g6
(dp2356
g8
S'_home_rawdata_Envs_venv_lib_python2_7_site-packages_django_core_wsgi.html'
p2357
sg10
S'/home/rawdata/Envs/venv/lib/python2.7/site-packages/django/core/wsgi'
p2358
sg12
g13
(g14
g15
NtRp2359
(dp2360
g18
I1
sg19
I0
sg20
I5
sg21
I0
sg22
I0
sg23
I2
sg24
I0
sbssg25
S'\xf1tQ4\xb0\x8f=\xf6P\xf8\xaaM\xd0\x17\r9'
p2361
ssS'_home_rawdata_Envs_venv_lib_python2_7_site-packages_selenium_webdriver_firefox___init__'
p2362
(dp2363
g6
(dp2364
g8
S'_home_rawdata_Envs_venv_lib_python2_7_site-packages_selenium_webdriver_firefox___init__.html'
p2365
sg10
S'/home/rawdata/Envs/venv/lib/python2.7/site-packages/selenium/webdriver/firefox/__init__'
p2366
sg12
g13
(g14
g15
NtRp2367
(dp2368
g18
I1
sg19
I0
sg20
I0
sg21
I0
sg22
I0
sg23
I0
sg24
I0
sbssg25
S'j\xe4%\xd6^\xf1W1\xb8\x1c\x8a\x7fj\xa9\x1d\xce'
p2369
ssS'_home_rawdata_Envs_venv_lib_python2_7_site-packages_django_db_migrations_autodetector'
p2370
(dp2371
g6
(dp2372
g8
S'_home_rawdata_Envs_venv_lib_python2_7_site-packages_django_db_migrations_autodetector.html'
p2373
sg10
S'/home/rawdata/Envs/venv/lib/python2.7/site-packages/django/db/migrations/autodetector'
p2374
sg12
g13
(g14
g15
NtRp2375
(dp2376
g18
I1
sg19
I0
sg20
I527
sg21
I0
sg22
I0
sg23
I487
sg24
I0
sbssg25
S'5\xaeb\xc4b\xadm\x05\xca\xc9\xd3\xbem3\r\x14'
p2377
ssS'_home_rawdata_Envs_venv_lib_python2_7_site-packages_selenium_webdriver_support_wait'
p2378
(dp2379
g6
(dp2380
g8
S'_home_rawdata_Envs_venv_lib_python2_7_site-packages_selenium_webdriver_support_wait.html'
p2381
sg10
S'/home/rawdata/Envs/venv/lib/python2.7/site-packages/selenium/webdriver/support/wait'
p2382
sg12
g13
(g14
g15
NtRp2383
(dp2384
g18
I1
sg19
I0
sg20
I48
sg21
I0
sg22
I0
sg23
I39
sg24
I0
sbssg25
S'\xb2\x9b\xe8%\xc6\xc9b\xe5M`\xf1U]i!k'
p2385
ssS'_home_rawdata_Envs_venv_lib_python2_7_site-packages_django_db_models_fields_files'
p2386
(dp2387
g6
(dp2388
g8
S'_home_rawdata_Envs_venv_lib_python2_7_site-packages_django_db_models_fields_files.html'
p2389
sg10
S'/home/rawdata/Envs/venv/lib/python2.7/site-packages/django/db/models/fields/files'
p2390
sg12
g13
(g14
g15
NtRp2391
(dp2392
g18
I1
sg19
I0
sg20
I247
sg21
I0
sg22
I0
sg23
I170
sg24
I0
sbssg25
S'1/Q-5D[\x9d\xb46\xca\xd4kZ\x9e\xc9'
p2393
ssS'apps_accounts___init__'
p2394
(dp2395
g6
(dp2396
g8
S'apps_accounts___init__.html'
p2397
sg10
S'apps/accounts/__init__'
p2398
sg12
g13
(g14
g15
NtRp2399
(dp2400
g18
I1
sg19
I0
sg20
I0
sg21
I0
sg22
I0
sg23
I0
sg24
I0
sbssg25
S'\xb0\xc8pN\xaf>\xa0\xbaz\x144\xe0A9\xb8?'
p2401
ssS'_home_rawdata_Envs_venv_lib_python2_7_site-packages_django_utils_timesince'
p2402
(dp2403
g6
(dp2404
g8
S'_home_rawdata_Envs_venv_lib_python2_7_site-packages_django_utils_timesince.html'
p2405
sg10
S'/home/rawdata/Envs/venv/lib/python2.7/site-packages/django/utils/timesince'
p2406
sg12
g13
(g14
g15
NtRp2407
(dp2408
g18
I1
sg19
I0
sg20
I30
sg21
I0
sg22
I0
sg23
I23
sg24
I0
sbssg25
S'\xb6\xdfly\xcc\x1e\xcc\x91\xce\\\x8b\xa8F\xc4\xcfR'
p2409
ssS'_home_rawdata_Envs_venv_lib_python2_7_site-packages_django_core_serializers_pyyaml'
p2410
(dp2411
g6
(dp2412
g8
S'_home_rawdata_Envs_venv_lib_python2_7_site-packages_django_core_serializers_pyyaml.html'
p2413
sg10
S'/home/rawdata/Envs/venv/lib/python2.7/site-packages/django/core/serializers/pyyaml'
p2414
sg12
g13
(g14
g15
NtRp2415
(dp2416
g18
I1
sg19
I0
sg20
I41
sg21
I0
sg22
I0
sg23
I39
sg24
I0
sbssg25
S'r\x07\xacM\x9b\x1e\xc3\xdak\x8b\x7f\x01\x82\xb0P9'
p2417
ssS'_home_rawdata_Envs_venv_lib_python2_7_site-packages_django_views_generic_base'
p2418
(dp2419
g6
(dp2420
g8
S'_home_rawdata_Envs_venv_lib_python2_7_site-packages_django_views_generic_base.html'
p2421
sg10
S'/home/rawdata/Envs/venv/lib/python2.7/site-packages/django/views/generic/base'
p2422
sg12
g13
(g14
g15
NtRp2423
(dp2424
g18
I1
sg19
I0
sg20
I105
sg21
I0
sg22
I0
sg23
I64
sg24
I0
sbssg25
S'\xaaR\xbf\xc9\xcb\x07\xect&\xe2i\xca\xee\x1bbB'
p2425
ssS'_home_rawdata_Envs_venv_lib_python2_7_site-packages_crispy_forms_layout'
p2426
(dp2427
g6
(dp2428
g8
S'_home_rawdata_Envs_venv_lib_python2_7_site-packages_crispy_forms_layout.html'
p2429
sg10
S'/home/rawdata/Envs/venv/lib/python2.7/site-packages/crispy_forms/layout'
p2430
sg12
g13
(g14
g15
NtRp2431
(dp2432
g18
I1
sg19
I0
sg20
I176
sg21
I0
sg22
I0
sg23
I103
sg24
I0
sbssg25
S'\xf3\x020f\xf9\x95))\xbb\x8b\xec\x04\x8cb\x11\xa5'
p2433
ssS'_home_rawdata_Envs_venv_lib_python2_7_site-packages_rest_framework_request'
p2434
(dp2435
g6
(dp2436
g8
S'_home_rawdata_Envs_venv_lib_python2_7_site-packages_rest_framework_request.html'
p2437
sg10
S'/home/rawdata/Envs/venv/lib/python2.7/site-packages/rest_framework/request'
p2438
sg12
g13
(g14
g15
NtRp2439
(dp2440
g18
I1
sg19
I0
sg20
I230
sg21
I0
sg22
I0
sg23
I180
sg24
I0
sbssg25
S'\x82\xc3\xd3\xa7\xfc\x0c\xc1\x03X\xec\x13\x1e\xb1U\xd7^'
p2441
ssS'_home_rawdata_Envs_venv_lib_python2_7_site-packages_markdown_postprocessors'
p2442
(dp2443
g6
(dp2444
g8
S'_home_rawdata_Envs_venv_lib_python2_7_site-packages_markdown_postprocessors.html'
p2445
sg10
S'/home/rawdata/Envs/venv/lib/python2.7/site-packages/markdown/postprocessors'
p2446
sg12
g13
(g14
g15
NtRp2447
(dp2448
g18
I1
sg19
I0
sg20
I49
sg21
I1
sg22
I0
sg23
I31
sg24
I0
sbssg25
S'\xd4(>\x91\xfb\xeaxj\xf4\x19Y\xb7o\xaa\x9cO'
p2449
ssS'_home_rawdata_Envs_venv_lib_python2_7_site-packages_django_db_migrations_migration'
p2450
(dp2451
g6
(dp2452
g8
S'_home_rawdata_Envs_venv_lib_python2_7_site-packages_django_db_migrations_migration.html'
p2453
sg10
S'/home/rawdata/Envs/venv/lib/python2.7/site-packages/django/db/migrations/migration'
p2454
sg12
g13
(g14
g15
NtRp2455
(dp2456
g18
I1
sg19
I0
sg20
I79
sg21
I0
sg22
I0
sg23
I35
sg24
I0
sbssg25
S'uv\xd4j\x1c\x9dT\xb3\xd8\x16\xcdM\xb3K\xbc\x8b'
p2457
ssS'apps_questions___init__'
p2458
(dp2459
g6
(dp2460
g8
S'apps_questions___init__.html'
p2461
sg10
S'apps/questions/__init__'
p2462
sg12
g13
(g14
g15
NtRp2463
(dp2464
g18
I1
sg19
I0
sg20
I0
sg21
I0
sg22
I0
sg23
I0
sg24
I0
sbssg25
S'\xb0\xc8pN\xaf>\xa0\xbaz\x144\xe0A9\xb8?'
p2465
ssS'_home_rawdata_Envs_venv_lib_python2_7_site-packages_django_db_models_expressions'
p2466
(dp2467
g6
(dp2468
g8
S'_home_rawdata_Envs_venv_lib_python2_7_site-packages_django_db_models_expressions.html'
p2469
sg10
S'/home/rawdata/Envs/venv/lib/python2.7/site-packages/django/db/models/expressions'
p2470
sg12
g13
(g14
g15
NtRp2471
(dp2472
g18
I1
sg19
I0
sg20
I99
sg21
I0
sg22
I0
sg23
I52
sg24
I0
sbssg25
S'\x99\x01A\xfby\x87H\x06\x1f\xb8\x00#T\xc4\xbf\xb4'
p2473
ssS'_home_rawdata_Envs_venv_lib_python2_7_site-packages_django_filters_filters'
p2474
(dp2475
g6
(dp2476
g8
S'_home_rawdata_Envs_venv_lib_python2_7_site-packages_django_filters_filters.html'
p2477
sg10
S'/home/rawdata/Envs/venv/lib/python2.7/site-packages/django_filters/filters'
p2478
sg12
g13
(g14
g15
NtRp2479
(dp2480
g18
I1
sg19
I0
sg20
I138
sg21
I0
sg22
I0
sg23
I81
sg24
I0
sbssg25
S'"\n\x82z2r2!\xaf>\x12\xa6l\x12\xcc\xbf'
p2481
ssS'apps_exams_migrations_0005_remove_answer_user'
p2482
(dp2483
g6
(dp2484
g8
S'apps_exams_migrations_0005_remove_answer_user.html'
p2485
sg10
S'apps/exams/migrations/0005_remove_answer_user'
p2486
sg12
g13
(g14
g15
NtRp2487
(dp2488
g18
I1
sg19
I0
sg20
I5
sg21
I0
sg22
I0
sg23
I0
sg24
I0
sbssg25
S'^-h%\x02!\x1dS\xaf\xf6\x81\x85\xe6\x07\xd1^'
p2489
ssS'_home_rawdata_Envs_venv_lib_python2_7_site-packages_django_utils_module_loading'
p2490
(dp2491
g6
(dp2492
g367
S'_home_rawdata_Envs_venv_lib_python2_7_site-packages_django_utils_module_loading.html'
p2493
sg369
S'/home/rawdata/Envs/venv/lib/python2.7/site-packages/django/utils/module_loading'
p2494
sg371
g13
(g14
g15
NtRp2495
(dp2496
g18
I1
sg19
I0
sg20
I89
sg21
I0
sg22
I0
sg23
I23
sg24
I0
sbssg25
S'H\xdfc\xb5\xd4e\x8c)\xa1\x90\x7f\x8b\xb1,\x15$'
p2497
ssS'_home_rawdata_Envs_venv_lib_python2_7_site-packages_django_db_models_deletion'
p2498
(dp2499
g6
(dp2500
g8
S'_home_rawdata_Envs_venv_lib_python2_7_site-packages_django_db_models_deletion.html'
p2501
sg10
S'/home/rawdata/Envs/venv/lib/python2.7/site-packages/django/db/models/deletion'
p2502
sg12
g13
(g14
g15
NtRp2503
(dp2504
g18
I1
sg19
I0
sg20
I154
sg21
I0
sg22
I0
sg23
I131
sg24
I0
sbssg25
S'$\x0b\xdd`;\xc0ql\xbb\x7fbp\x17\xe8\xaa\x0e'
p2505
ssS'_home_rawdata_Envs_venv_lib_python2_7_site-packages_django_utils_http'
p2506
(dp2507
g6
(dp2508
g8
S'_home_rawdata_Envs_venv_lib_python2_7_site-packages_django_utils_http.html'
p2509
sg10
S'/home/rawdata/Envs/venv/lib/python2.7/site-packages/django/utils/http'
p2510
sg12
g13
(g14
g15
NtRp2511
(dp2512
g18
I1
sg19
I0
sg20
I135
sg21
I0
sg22
I0
sg23
I90
sg24
I0
sbssg25
S'\xe2\x85"\x07\xb2n\xc3\xfc_B\xd2\x00\xa4L\xa7\xf4'
p2513
ssS'_home_rawdata_Envs_venv_lib_python2_7_site-packages_django_core_management_commands_flush'
p2514
(dp2515
g6
(dp2516
g8
S'_home_rawdata_Envs_venv_lib_python2_7_site-packages_django_core_management_commands_flush.html'
p2517
sg10
S'/home/rawdata/Envs/venv/lib/python2.7/site-packages/django/core/management/commands/flush'
p2518
sg12
g13
(g14
g15
NtRp2519
(dp2520
g18
I1
sg19
I0
sg20
I57
sg21
I0
sg22
I0
sg23
I5
sg24
I0
sbssg25
S'\xdc\x94\x9b\xd0\xa6\r\xa1\xb7\x15\x89\xd6\xc9Ef0\xa5'
p2521
ssS'_home_rawdata_Envs_venv_lib_python2_7_site-packages_selenium_webdriver_common_html5___init__'
p2522
(dp2523
g6
(dp2524
g8
S'_home_rawdata_Envs_venv_lib_python2_7_site-packages_selenium_webdriver_common_html5___init__.html'
p2525
sg10
S'/home/rawdata/Envs/venv/lib/python2.7/site-packages/selenium/webdriver/common/html5/__init__'
p2526
sg12
g13
(g14
g15
NtRp2527
(dp2528
g18
I1
sg19
I0
sg20
I0
sg21
I0
sg22
I0
sg23
I0
sg24
I0
sbssg25
S'!B\x14\x04\x98\xd4\xa0P\xb8\xe8)\x88}\xee\xd9f'
p2529
ssS'_home_rawdata_Envs_venv_lib_python2_7_site-packages_django_db_transaction'
p2530
(dp2531
g6
(dp2532
g8
S'_home_rawdata_Envs_venv_lib_python2_7_site-packages_django_db_transaction.html'
p2533
sg10
S'/home/rawdata/Envs/venv/lib/python2.7/site-packages/django/db/transaction'
p2534
sg12
g13
(g14
g15
NtRp2535
(dp2536
g18
I1
sg19
I0
sg20
I207
sg21
I0
sg22
I0
sg23
I115
sg24
I0
sbssg25
S'\xae\xc1z\x12\x14M\xa2\x16\x14az;\x10\xf6\xc07'
p2537
ssS'_home_rawdata_Envs_venv_lib_python2_7_site-packages_selenium_webdriver_remote_switch_to'
p2538
(dp2539
g6
(dp2540
g8
S'_home_rawdata_Envs_venv_lib_python2_7_site-packages_selenium_webdriver_remote_switch_to.html'
p2541
sg10
S'/home/rawdata/Envs/venv/lib/python2.7/site-packages/selenium/webdriver/remote/switch_to'
p2542
sg12
g13
(g14
g15
NtRp2543
(dp2544
g18
I1
sg19
I0
sg20
I17
sg21
I0
sg22
I0
sg23
I6
sg24
I0
sbssg25
S'\x9fw<\xd5m\x81\xc5rJY\x00\xb9\x03\\\xdb\xbf'
p2545
ssS'_home_rawdata_Envs_venv_lib_python2_7_site-packages_django_db_models_query'
p2546
(dp2547
g6
(dp2548
g8
S'_home_rawdata_Envs_venv_lib_python2_7_site-packages_django_db_models_query.html'
p2549
sg10
S'/home/rawdata/Envs/venv/lib/python2.7/site-packages/django/db/models/query'
p2550
sg12
g13
(g14
g15
NtRp2551
(dp2552
g18
I1
sg19
I0
sg20
I992
sg21
I0
sg22
I0
sg23
I664
sg24
I0
sbssg25
S'\xf0[\xb9\x1e\x1f\xcd\xde0v5w=jV\xf6\t'
p2553
ssS'_home_rawdata_Envs_venv_lib_python2_7_site-packages_selenium_webdriver_opera_options'
p2554
(dp2555
g6
(dp2556
g8
S'_home_rawdata_Envs_venv_lib_python2_7_site-packages_selenium_webdriver_opera_options.html'
p2557
sg10
S'/home/rawdata/Envs/venv/lib/python2.7/site-packages/selenium/webdriver/opera/options'
p2558
sg12
g13
(g14
g15
NtRp2559
(dp2560
g18
I1
sg19
I0
sg20
I35
sg21
I0
sg22
I0
sg23
I22
sg24
I0
sbssg25
S'\xb7\xec\x94\x18\xaf\xc1\xef\xce\xd2\x1f\x81\xebf\x7f\xa8m'
p2561
ssS'_home_rawdata_Envs_venv_lib_python2_7_site-packages_django_contrib_sessions_backends___init__'
p2562
(dp2563
g6
(dp2564
g8
S'_home_rawdata_Envs_venv_lib_python2_7_site-packages_django_contrib_sessions_backends___init__.html'
p2565
sg10
S'/home/rawdata/Envs/venv/lib/python2.7/site-packages/django/contrib/sessions/backends/__init__'
p2566
sg12
g13
(g14
g15
NtRp2567
(dp2568
g18
I1
sg19
I0
sg20
I0
sg21
I0
sg22
I0
sg23
I0
sg24
I0
sbssg25
S'\xb0\xc8pN\xaf>\xa0\xbaz\x144\xe0A9\xb8?'
p2569
ssS'apps_accounts_forms'
p2570
(dp2571
g6
(dp2572
g8
S'apps_accounts_forms.html'
p2573
sg10
S'apps/accounts/forms'
p2574
sg12
g13
(g14
g15
NtRp2575
(dp2576
g18
I1
sg19
I0
sg20
I28
sg21
I0
sg22
I0
sg23
I13
sg24
I0
sbssg25
S'\x0c\x86\x1d3rL\x84\x95\xfa1\xd2\x1btB\x8e\x99'
p2577
ssS'apps_accounts_tests'
p2578
(dp2579
g6
(dp2580
g8
S'apps_accounts_tests.html'
p2581
sg10
S'apps/accounts/tests'
p2582
sg12
g13
(g14
g15
NtRp2583
(dp2584
g18
I1
sg19
I0
sg20
I45
sg21
I0
sg22
I0
sg23
I0
sg24
I0
sbssg25
S'e1p/b$\x03h\xbf\x8b4\xdbs\xc6\\\x86'
p2585
ssS'_home_rawdata_Envs_venv_lib_python2_7_site-packages_rest_framework_compat'
p2586
(dp2587
g6
(dp2588
g8
S'_home_rawdata_Envs_venv_lib_python2_7_site-packages_rest_framework_compat.html'
p2589
sg10
S'/home/rawdata/Envs/venv/lib/python2.7/site-packages/rest_framework/compat'
p2590
sg12
g13
(g14
g15
NtRp2591
(dp2592
g18
I1
sg19
I0
sg20
I145
sg21
I0
sg22
I0
sg23
I82
sg24
I0
sbssg25
S'\xd6\xe5~\x97\n\x8f\x8b\x9a\xd3\x91\xd0\xdd\x03]\x9f\xf5'
p2593
ssS'_home_rawdata_Envs_venv_lib_python2_7_site-packages_selenium_webdriver_ie_webdriver'
p2594
(dp2595
g6
(dp2596
g8
S'_home_rawdata_Envs_venv_lib_python2_7_site-packages_selenium_webdriver_ie_webdriver.html'
p2597
sg10
S'/home/rawdata/Envs/venv/lib/python2.7/site-packages/selenium/webdriver/ie/webdriver'
p2598
sg12
g13
(g14
g15
NtRp2599
(dp2600
g18
I1
sg19
I0
sg20
I29
sg21
I0
sg22
I0
sg23
I14
sg24
I0
sbssg25
S'\xf8I\xcc*d\xeb\xef\x7f\xeb\x1c&\xabM$\x9b\x17'
p2601
ssS'_home_rawdata_Envs_venv_lib_python2_7_site-packages_markdown_serializers'
p2602
(dp2603
g6
(dp2604
g8
S'_home_rawdata_Envs_venv_lib_python2_7_site-packages_markdown_serializers.html'
p2605
sg10
S'/home/rawdata/Envs/venv/lib/python2.7/site-packages/markdown/serializers'
p2606
sg12
g13
(g14
g15
NtRp2607
(dp2608
g18
I1
sg19
I0
sg20
I153
sg21
I18
sg22
I0
sg23
I132
sg24
I0
sbssg25
S'\'\xec\x9b\xd4D\xcc\xa9\x84\xf8\x7f"\xe8\x16\xddU\xd0'
p2609
ssS'_home_rawdata_Envs_venv_lib_python2_7_site-packages_django_utils_regex_helper'
p2610
(dp2611
g6
(dp2612
g8
S'_home_rawdata_Envs_venv_lib_python2_7_site-packages_django_utils_regex_helper.html'
p2613
sg10
S'/home/rawdata/Envs/venv/lib/python2.7/site-packages/django/utils/regex_helper'
p2614
sg12
g13
(g14
g15
NtRp2615
(dp2616
g18
I1
sg19
I0
sg20
I188
sg21
I0
sg22
I0
sg23
I175
sg24
I0
sbssg25
S"\xb6x\x0b\x958IZ\xd5\x91\x14\xad0'j\x99L"
p2617
ssS'_home_rawdata_Envs_venv_lib_python2_7_site-packages_django_core_urlresolvers'
p2618
(dp2619
g6
(dp2620
g8
S'_home_rawdata_Envs_venv_lib_python2_7_site-packages_django_core_urlresolvers.html'
p2621
sg10
S'/home/rawdata/Envs/venv/lib/python2.7/site-packages/django/core/urlresolvers'
p2622
sg12
g13
(g14
g15
NtRp2623
(dp2624
g18
I1
sg19
I0
sg20
I379
sg21
I0
sg22
I0
sg23
I305
sg24
I0
sbssg25
S'\x1eR\xeb\x8c\x12mn\x12\xa4G2\xa4$<rs'
p2625
ssS'_home_rawdata_Envs_venv_lib_python2_7_site-packages_django_test_testcases'
p2626
(dp2627
g6
(dp2628
g8
S'_home_rawdata_Envs_venv_lib_python2_7_site-packages_django_test_testcases.html'
p2629
sg10
S'/home/rawdata/Envs/venv/lib/python2.7/site-packages/django/test/testcases'
p2630
sg12
g13
(g14
g15
NtRp2631
(dp2632
g18
I1
sg19
I0
sg20
I604
sg21
I0
sg22
I0
sg23
I346
sg24
I0
sbssg25
S'\x1e\x94\xab\x91\x19\xc3\xef\x98j\xd1\xd8U\x00\xf7\xeb\x1b'
p2633
ssS'_home_rawdata_Envs_venv_lib_python2_7_site-packages_django_contrib_messages_storage___init__'
p2634
(dp2635
g6
(dp2636
g8
S'_home_rawdata_Envs_venv_lib_python2_7_site-packages_django_contrib_messages_storage___init__.html'
p2637
sg10
S'/home/rawdata/Envs/venv/lib/python2.7/site-packages/django/contrib/messages/storage/__init__'
p2638
sg12
g13
(g14
g15
NtRp2639
(dp2640
g18
I1
sg19
I0
sg20
I4
sg21
I0
sg22
I0
sg23
I1
sg24
I0
sbssg25
S'\xd1\xd5Ds\xddZX8\n?\xd6N"\x0e\xc9\x9c'
p2641
ssS'_home_rawdata_Envs_venv_lib_python2_7_site-packages_django_test_signals'
p2642
(dp2643
g6
(dp2644
g8
S'_home_rawdata_Envs_venv_lib_python2_7_site-packages_django_test_signals.html'
p2645
sg10
S'/home/rawdata/Envs/venv/lib/python2.7/site-packages/django/test/signals'
p2646
sg12
g13
(g14
g15
NtRp2647
(dp2648
g18
I1
sg19
I0
sg20
I79
sg21
I0
sg22
I0
sg23
I57
sg24
I0
sbssg25
S'\xfa \x8fI_\x9bF\xe9\n\x8f!!\x9a%,7'
p2649
ssS'_home_rawdata_Envs_venv_lib_python2_7_site-packages_django_apps_registry'
p2650
(dp2651
g6
(dp2652
g8
S'_home_rawdata_Envs_venv_lib_python2_7_site-packages_django_apps_registry.html'
p2653
sg10
S'/home/rawdata/Envs/venv/lib/python2.7/site-packages/django/apps/registry'
p2654
sg12
g13
(g14
g15
NtRp2655
(dp2656
g18
I1
sg19
I0
sg20
I183
sg21
I0
sg22
I0
sg23
I77
sg24
I0
sbssg25
S'\xcc\x0b\x1c}\xa6\x88\xf1\xbe\xe3\xbe\x1ac\xde\x9b9\xbe'
p2657
ssS'apps_accounts_admin'
p2658
(dp2659
g6
(dp2660
g8
S'apps_accounts_admin.html'
p2661
sg10
S'apps/accounts/admin'
p2662
sg12
g13
(g14
g15
NtRp2663
(dp2664
g18
I1
sg19
I0
sg20
I1
sg21
I0
sg22
I0
sg23
I0
sg24
I0
sbssg25
S'n\x07LE88\xf3&\x91\x1d\xfb3\xba)Ar'
p2665
ssS'_home_rawdata_Envs_venv_lib_python2_7_site-packages_django_contrib_staticfiles___init__'
p2666
(dp2667
g6
(dp2668
g8
S'_home_rawdata_Envs_venv_lib_python2_7_site-packages_django_contrib_staticfiles___init__.html'
p2669
sg10
S'/home/rawdata/Envs/venv/lib/python2.7/site-packages/django/contrib/staticfiles/__init__'
p2670
sg12
g13
(g14
g15
NtRp2671
(dp2672
g18
I1
sg19
I0
sg20
I1
sg21
I0
sg22
I0
sg23
I0
sg24
I0
sbssg25
S'o\xf4\x8a\xb6\x10I\xf4G\xa2_\xba$\xf9\xd2\xb1{'
p2673
ssS'_home_rawdata_Envs_venv_lib_python2_7_site-packages_django_core_cache_backends_db'
p2674
(dp2675
g6
(dp2676
g8
S'_home_rawdata_Envs_venv_lib_python2_7_site-packages_django_core_cache_backends_db.html'
p2677
sg10
S'/home/rawdata/Envs/venv/lib/python2.7/site-packages/django/core/cache/backends/db'
p2678
sg12
g13
(g14
g15
NtRp2679
(dp2680
g18
I1
sg19
I0
sg20
I134
sg21
I0
sg22
I0
sg23
I109
sg24
I0
sbssg25
S'8\x82\x95\xfd,*5u\x99%>2\xf6q\x06}'
p2681
ssS'_home_rawdata_Envs_venv_lib_python2_7_site-packages_django_utils_tree'
p2682
(dp2683
g6
(dp2684
g8
S'_home_rawdata_Envs_venv_lib_python2_7_site-packages_django_utils_tree.html'
p2685
sg10
S'/home/rawdata/Envs/venv/lib/python2.7/site-packages/django/utils/tree'
p2686
sg12
g13
(g14
g15
NtRp2687
(dp2688
g18
I1
sg19
I0
sg20
I50
sg21
I0
sg22
I0
sg23
I20
sg24
I0
sbssg25
S'\xda\xd8\xc8\x88*\x14]4\xfe\x1b\xfa\xc3\xec\x07\xfc\xfb'
p2689
ssS'_home_rawdata_Envs_venv_lib_python2_7_site-packages_django_views_debug'
p2690
(dp2691
g6
(dp2692
g8
S'_home_rawdata_Envs_venv_lib_python2_7_site-packages_django_views_debug.html'
p2693
sg10
S'/home/rawdata/Envs/venv/lib/python2.7/site-packages/django/views/debug'
p2694
sg12
g13
(g14
g15
NtRp2695
(dp2696
g18
I1
sg19
I0
sg20
I302
sg21
I0
sg22
I0
sg23
I250
sg24
I0
sbssg25
S'#Y\xfa3\x9bq\xce7\xac\xda?]d\x83\x8c\xe5'
p2697
ssS'apps_exams_admin'
p2698
(dp2699
g6
(dp2700
g8
S'apps_exams_admin.html'
p2701
sg10
S'apps/exams/admin'
p2702
sg12
g13
(g14
g15
NtRp2703
(dp2704
g18
I1
sg19
I0
sg20
I7
sg21
I0
sg22
I0
sg23
I0
sg24
I0
sbssg25
S'\xa7;x\xe6P1\x12\xe6\x92\xcaJ\xa7J\x8c\xe5\xdb'
p2705
ssS'_home_rawdata_Envs_venv_lib_python2_7_site-packages_django_core_serializers_base'
p2706
(dp2707
g6
(dp2708
g8
S'_home_rawdata_Envs_venv_lib_python2_7_site-packages_django_core_serializers_base.html'
p2709
sg10
S'/home/rawdata/Envs/venv/lib/python2.7/site-packages/django/core/serializers/base'
p2710
sg12
g13
(g14
g15
NtRp2711
(dp2712
g18
I1
sg19
I0
sg20
I90
sg21
I0
sg22
I0
sg23
I33
sg24
I0
sbssg25
S"'\xba\n\xf9\x0c\xe7?\xaaD\xff\xb7M\xc2\xbf\x19\xb4"
p2713
ssS'apps_exams_models'
p2714
(dp2715
g6
(dp2716
g8
S'apps_exams_models.html'
p2717
sg10
S'apps/exams/models'
p2718
sg12
g13
(g14
g15
NtRp2719
(dp2720
g18
I1
sg19
I0
sg20
I26
sg21
I0
sg22
I0
sg23
I5
sg24
I0
sbssg25
S'\x92\xe1"\xcfmU\xf7\x9c\xb4\x0e\x96\x07\xc9\x90\xbe~'
p2721
ssS'_home_rawdata_Envs_venv_lib_python2_7_site-packages_django_http_response'
p2722
(dp2723
g6
(dp2724
g8
S'_home_rawdata_Envs_venv_lib_python2_7_site-packages_django_http_response.html'
p2725
sg10
S'/home/rawdata/Envs/venv/lib/python2.7/site-packages/django/http/response'
p2726
sg12
g13
(g14
g15
NtRp2727
(dp2728
g18
I1
sg19
I0
sg20
I235
sg21
I0
sg22
I0
sg23
I139
sg24
I0
sbssg25
S'b\xa8<\xc92\xee\x10\xc4+\xcbz_AP@\x92'
p2729
ssS'_home_rawdata_Envs_venv_lib_python2_7_site-packages_selenium_webdriver_phantomjs_service'
p2730
(dp2731
g6
(dp2732
g8
S'_home_rawdata_Envs_venv_lib_python2_7_site-packages_selenium_webdriver_phantomjs_service.html'
p2733
sg10
S'/home/rawdata/Envs/venv/lib/python2.7/site-packages/selenium/webdriver/phantomjs/service'
p2734
sg12
g13
(g14
g15
NtRp2735
(dp2736
g18
I1
sg19
I0
sg20
I49
sg21
I0
sg22
I0
sg23
I37
sg24
I0
sbssg25
S'\x1d{\x9ffz\xd9\x15m\x1e\x90\xa0\x8d]|\xd6<'
p2737
ssS'_home_rawdata_Envs_venv_lib_python2_7_site-packages_django_utils_six'
p2738
(dp2739
g6
(dp2740
g367
S'_home_rawdata_Envs_venv_lib_python2_7_site-packages_django_utils_six.html'
p2741
sg369
S'/home/rawdata/Envs/venv/lib/python2.7/site-packages/django/utils/six'
p2742
sg371
g13
(g14
g15
NtRp2743
(dp2744
g18
I1
sg19
I0
sg20
I442
sg21
I0
sg22
I0
sg23
I197
sg24
I0
sbssg25
S'?O\x10\xa9\xc5\xe8[\xeb\xfd*boQp\xe8h'
p2745
ssS'_home_rawdata_Envs_venv_lib_python2_7_site-packages_django_contrib_staticfiles_management___init__'
p2746
(dp2747
g6
(dp2748
g8
S'_home_rawdata_Envs_venv_lib_python2_7_site-packages_django_contrib_staticfiles_management___init__.html'
p2749
sg10
S'/home/rawdata/Envs/venv/lib/python2.7/site-packages/django/contrib/staticfiles/management/__init__'
p2750
sg12
g13
(g14
g15
NtRp2751
(dp2752
g18
I1
sg19
I0
sg20
I0
sg21
I0
sg22
I0
sg23
I0
sg24
I0
sbssg25
S'\xb0\xc8pN\xaf>\xa0\xbaz\x144\xe0A9\xb8?'
p2753
ssS'_home_rawdata_Envs_venv_lib_python2_7_site-packages_selenium_webdriver_remote_remote_connection'
p2754
(dp2755
g6
(dp2756
g8
S'_home_rawdata_Envs_venv_lib_python2_7_site-packages_selenium_webdriver_remote_remote_connection.html'
p2757
sg10
S'/home/rawdata/Envs/venv/lib/python2.7/site-packages/selenium/webdriver/remote/remote_connection'
p2758
sg12
g13
(g14
g15
NtRp2759
(dp2760
g18
I1
sg19
I0
sg20
I139
sg21
I0
sg22
I0
sg23
I62
sg24
I0
sbssg25
S'\xe5&9\xd4\xc2B\xa1!\xc4\xf1R\xe3\x89K{\xf8'
p2761
ssS'_home_rawdata_Envs_venv_lib_python2_7_site-packages_selenium_webdriver_common_html5_application_cache'
p2762
(dp2763
g6
(dp2764
g8
S'_home_rawdata_Envs_venv_lib_python2_7_site-packages_selenium_webdriver_common_html5_application_cache.html'
p2765
sg10
S'/home/rawdata/Envs/venv/lib/python2.7/site-packages/selenium/webdriver/common/html5/application_cache'
p2766
sg12
g13
(g14
g15
NtRp2767
(dp2768
g18
I1
sg19
I0
sg20
I12
sg21
I0
sg22
I0
sg23
I2
sg24
I0
sbssg25
S'Jd\xc9\x8ch\x0f\x02:\x84\xb2A\x801\xa7\xdc\xce'
p2769
ssS'_home_rawdata_Envs_venv_lib_python2_7_site-packages_rest_framework_exceptions'
p2770
(dp2771
g6
(dp2772
g8
S'_home_rawdata_Envs_venv_lib_python2_7_site-packages_rest_framework_exceptions.html'
p2773
sg10
S'/home/rawdata/Envs/venv/lib/python2.7/site-packages/rest_framework/exceptions'
p2774
sg12
g13
(g14
g15
NtRp2775
(dp2776
g18
I1
sg19
I0
sg20
I79
sg21
I0
sg22
I0
sg23
I30
sg24
I0
sbssg25
S'\xa1\xd2"\x90F\xb7\x07\xe7N\xd2\xcf)e\xd0\x17n'
p2777
ssS'_home_rawdata_Envs_venv_lib_python2_7_site-packages_markdown_blockprocessors'
p2778
(dp2779
g6
(dp2780
g8
S'_home_rawdata_Envs_venv_lib_python2_7_site-packages_markdown_blockprocessors.html'
p2781
sg10
S'/home/rawdata/Envs/venv/lib/python2.7/site-packages/markdown/blockprocessors'
p2782
sg12
g13
(g14
g15
NtRp2783
(dp2784
g18
I1
sg19
I0
sg20
I273
sg21
I4
sg22
I0
sg23
I209
sg24
I0
sbssg25
S'\xa2\xcd\xe0\xbe\x97,\xa7[f\xfa\x17Z\x94]oN'
p2785
ssS'_home_rawdata_Envs_venv_lib_python2_7_site-packages_markdown_blockparser'
p2786
(dp2787
g6
(dp2788
g8
S'_home_rawdata_Envs_venv_lib_python2_7_site-packages_markdown_blockparser.html'
p2789
sg10
S'/home/rawdata/Envs/venv/lib/python2.7/site-packages/markdown/blockparser'
p2790
sg12
g13
(g14
g15
NtRp2791
(dp2792
g18
I1
sg19
I0
sg20
I30
sg21
I0
sg22
I0
sg23
I17
sg24
I0
sbssg25
S'y\xe4\xf9P\xab\x85m);\x9e\xcf\x7f?\x87\xa9b'
p2793
ssS'_home_rawdata_Envs_venv_lib_python2_7_site-packages_django_views_generic_list'
p2794
(dp2795
g6
(dp2796
g8
S'_home_rawdata_Envs_venv_lib_python2_7_site-packages_django_views_generic_list.html'
p2797
sg10
S'/home/rawdata/Envs/venv/lib/python2.7/site-packages/django/views/generic/list'
p2798
sg12
g13
(g14
g15
NtRp2799
(dp2800
g18
I1
sg19
I0
sg20
I90
sg21
I0
sg22
I0
sg23
I60
sg24
I0
sbssg25
S'\xfe@\xbe7\xb1\x04\xc8\x9f\xf9C\xa2F?+\x18~'
p2801
ssS'_home_rawdata_Envs_venv_lib_python2_7_site-packages_markdown_treeprocessors'
p2802
(dp2803
g6
(dp2804
g8
S'_home_rawdata_Envs_venv_lib_python2_7_site-packages_markdown_treeprocessors.html'
p2805
sg10
S'/home/rawdata/Envs/venv/lib/python2.7/site-packages/markdown/treeprocessors'
p2806
sg12
g13
(g14
g15
NtRp2807
(dp2808
g18
I1
sg19
I0
sg20
I187
sg21
I1
sg22
I0
sg23
I165
sg24
I0
sbssg25
S'\x9e\xf3L\x0e\xf4\xaf+\x84[0\xae\x8a1R\x9ez'
p2809
ssS'_home_rawdata_Envs_venv_lib_python2_7_site-packages_django_http_multipartparser'
p2810
(dp2811
g6
(dp2812
g8
S'_home_rawdata_Envs_venv_lib_python2_7_site-packages_django_http_multipartparser.html'
p2813
sg10
S'/home/rawdata/Envs/venv/lib/python2.7/site-packages/django/http/multipartparser'
p2814
sg12
g13
(g14
g15
NtRp2815
(dp2816
g18
I1
sg19
I0
sg20
I351
sg21
I0
sg22
I0
sg23
I295
sg24
I0
sbssg25
S'\x95\xb6\xd9#G\xd6\x9eAQ\xe1\x1el\xdc\xb1\xdb\xfa'
p2817
ssS'_home_rawdata_Envs_venv_lib_python2_7_site-packages_django_utils_dateparse'
p2818
(dp2819
g6
(dp2820
g8
S'_home_rawdata_Envs_venv_lib_python2_7_site-packages_django_utils_dateparse.html'
p2821
sg10
S'/home/rawdata/Envs/venv/lib/python2.7/site-packages/django/utils/dateparse'
p2822
sg12
g13
(g14
g15
NtRp2823
(dp2824
g18
I1
sg19
I0
sg20
I38
sg21
I0
sg22
I0
sg23
I28
sg24
I0
sbssg25
S'3,\x84O\x7f\x00\x12Q~\x86\xef\x0f\x99\xe2\xcbP'
p2825
ssS'_home_rawdata_Envs_venv_lib_python2_7_site-packages_django_utils_functional'
p2826
(dp2827
g6
(dp2828
g8
S'_home_rawdata_Envs_venv_lib_python2_7_site-packages_django_utils_functional.html'
p2829
sg10
S'/home/rawdata/Envs/venv/lib/python2.7/site-packages/django/utils/functional'
p2830
sg12
g13
(g14
g15
NtRp2831
(dp2832
g18
I1
sg19
I0
sg20
I232
sg21
I0
sg22
I0
sg23
I104
sg24
I0
sbssg25
S'?\xde\xe3\xac\x9f\x84}\xa0<\xc3\xd8\x16{\x95Ki'
p2833
ssS'_home_rawdata_Envs_venv_lib_python2_7_site-packages_django_contrib_auth___init__'
p2834
(dp2835
g6
(dp2836
g8
S'_home_rawdata_Envs_venv_lib_python2_7_site-packages_django_contrib_auth___init__.html'
p2837
sg10
S'/home/rawdata/Envs/venv/lib/python2.7/site-packages/django/contrib/auth/__init__'
p2838
sg12
g13
(g14
g15
NtRp2839
(dp2840
g18
I1
sg19
I0
sg20
I105
sg21
I0
sg22
I0
sg23
I79
sg24
I0
sbssg25
S'\xff\xf9\xb2?\xcfo:\x06\xce\xb3^\xaa"@\x05\xcd'
p2841
ssS'_home_rawdata_Envs_venv_lib_python2_7_site-packages_django_contrib_auth_management___init__'
p2842
(dp2843
g6
(dp2844
g8
S'_home_rawdata_Envs_venv_lib_python2_7_site-packages_django_contrib_auth_management___init__.html'
p2845
sg10
S'/home/rawdata/Envs/venv/lib/python2.7/site-packages/django/contrib/auth/management/__init__'
p2846
sg12
g13
(g14
g15
NtRp2847
(dp2848
g18
I1
sg19
I0
sg20
I89
sg21
I0
sg22
I0
sg23
I40
sg24
I0
sbssg25
S'\xc0\xcd\x04v6^#\xe6\xe3\xd8\x07\xda\xd6\x13B\xcd'
p2849
ssS'_home_rawdata_Envs_venv_lib_python2_7_site-packages_django_utils_text'
p2850
(dp2851
g6
(dp2852
g8
S'_home_rawdata_Envs_venv_lib_python2_7_site-packages_django_utils_text.html'
p2853
sg10
S'/home/rawdata/Envs/venv/lib/python2.7/site-packages/django/utils/text'
p2854
sg12
g13
(g14
g15
NtRp2855
(dp2856
g18
I1
sg19
I0
sg20
I239
sg21
I0
sg22
I0
sg23
I174
sg24
I0
sbssg25
S'\x9d?\x0f\xeb\t\x1f\xd6\t\xe53\x11\x08el\x80\xbf'
p2857
ssS'apps_questions_tests___init__'
p2858
(dp2859
g365
(dp2860
g367
S'apps_questions_tests___init__.html'
p2861
sg369
S'apps/questions/tests/__init__'
p2862
sg371
g13
(g14
g15
NtRp2863
(dp2864
g18
I1
sg19
I0
sg20
I1
sg21
I0
sg22
I0
sg23
I0
sg24
I0
sbssg374
S'\xc5\xd0\x98\xc0\x90K\xe8\xd4\xc5z\xb0=\x9f\xd5\xb6\xfe'
p2865
ssS'_home_rawdata_Envs_venv_lib_python2_7_site-packages_django_test_client'
p2866
(dp2867
g6
(dp2868
g8
S'_home_rawdata_Envs_venv_lib_python2_7_site-packages_django_test_client.html'
p2869
sg10
S'/home/rawdata/Envs/venv/lib/python2.7/site-packages/django/test/client'
p2870
sg12
g13
(g14
g15
NtRp2871
(dp2872
g18
I1
sg19
I0
sg20
I292
sg21
I0
sg22
I0
sg23
I214
sg24
I0
sbssg25
S'\xb4V\xdc\x0f\x8a^\x1d/\xc9\xef\xc4\xfd\xc6\xbd\\\n'
p2873
ssS'_home_rawdata_Envs_venv_lib_python2_7_site-packages_django_http___init__'
p2874
(dp2875
g6
(dp2876
g8
S'_home_rawdata_Envs_venv_lib_python2_7_site-packages_django_http___init__.html'
p2877
sg10
S'/home/rawdata/Envs/venv/lib/python2.7/site-packages/django/http/__init__'
p2878
sg12
g13
(g14
g15
NtRp2879
(dp2880
g18
I1
sg19
I0
sg20
I5
sg21
I0
sg22
I0
sg23
I0
sg24
I0
sbssg25
S'\xa1\xe0TLI\xb7\xb2c5+\x1b<]S\xf5\xc7'
p2881
ssS'_home_rawdata_Envs_venv_lib_python2_7_site-packages_selenium_webdriver_support_select'
p2882
(dp2883
g6
(dp2884
g8
S'_home_rawdata_Envs_venv_lib_python2_7_site-packages_selenium_webdriver_support_select.html'
p2885
sg10
S'/home/rawdata/Envs/venv/lib/python2.7/site-packages/selenium/webdriver/support/select'
p2886
sg12
g13
(g14
g15
NtRp2887
(dp2888
g18
I1
sg19
I0
sg20
I119
sg21
I0
sg22
I0
sg23
I101
sg24
I0
sbssg25
S'\xd2`\xf4\xc3\x1e\x1ep\xf2\x0f\xdb~\xa3l5\x99\r'
p2889
ssS'_home_rawdata_Envs_venv_lib_python2_7_site-packages_django_db_backends_sqlite3___init__'
p2890
(dp2891
g6
(dp2892
g8
S'_home_rawdata_Envs_venv_lib_python2_7_site-packages_django_db_backends_sqlite3___init__.html'
p2893
sg10
S'/home/rawdata/Envs/venv/lib/python2.7/site-packages/django/db/backends/sqlite3/__init__'
p2894
sg12
g13
(g14
g15
NtRp2895
(dp2896
g18
I1
sg19
I0
sg20
I0
sg21
I0
sg22
I0
sg23
I0
sg24
I0
sbssg25
S'\xb0\xc8pN\xaf>\xa0\xbaz\x144\xe0A9\xb8?'
p2897
ssS'_home_rawdata_Envs_venv_lib_python2_7_site-packages_django_core_checks_compatibility___init__'
p2898
(dp2899
g6
(dp2900
g8
S'_home_rawdata_Envs_venv_lib_python2_7_site-packages_django_core_checks_compatibility___init__.html'
p2901
sg10
S'/home/rawdata/Envs/venv/lib/python2.7/site-packages/django/core/checks/compatibility/__init__'
p2902
sg12
g13
(g14
g15
NtRp2903
(dp2904
g18
I1
sg19
I0
sg20
I0
sg21
I0
sg22
I0
sg23
I0
sg24
I0
sbssg25
S'\xb0\xc8pN\xaf>\xa0\xbaz\x144\xe0A9\xb8?'
p2905
ssS'_home_rawdata_Envs_venv_lib_python2_7_site-packages_django_contrib_sessions_management___init__'
p2906
(dp2907
g6
(dp2908
g8
S'_home_rawdata_Envs_venv_lib_python2_7_site-packages_django_contrib_sessions_management___init__.html'
p2909
sg10
S'/home/rawdata/Envs/venv/lib/python2.7/site-packages/django/contrib/sessions/management/__init__'
p2910
sg12
g13
(g14
g15
NtRp2911
(dp2912
g18
I1
sg19
I0
sg20
I0
sg21
I0
sg22
I0
sg23
I0
sg24
I0
sbssg25
S'\xb0\xc8pN\xaf>\xa0\xbaz\x144\xe0A9\xb8?'
p2913
ssS'_home_rawdata_Envs_venv_lib_python2_7_site-packages_selenium_webdriver_remote_file_detector'
p2914
(dp2915
g6
(dp2916
g8
S'_home_rawdata_Envs_venv_lib_python2_7_site-packages_selenium_webdriver_remote_file_detector.html'
p2917
sg10
S'/home/rawdata/Envs/venv/lib/python2.7/site-packages/selenium/webdriver/remote/file_detector'
p2918
sg12
g13
(g14
g15
NtRp2919
(dp2920
g18
I1
sg19
I0
sg20
I32
sg21
I0
sg22
I0
sg23
I22
sg24
I0
sbssg25
S'r\xd9W\xba\xdb\xd0\xa8\xd5\xb1 \xd7\xae\xf3\xc8\x1cx'
p2921
ssS'_home_rawdata_Envs_venv_lib_python2_7_site-packages_six'
p2922
(dp2923
g365
(dp2924
g367
S'_home_rawdata_Envs_venv_lib_python2_7_site-packages_six.html'
p2925
sg369
S'/home/rawdata/Envs/venv/lib/python2.7/site-packages/six'
p2926
sg371
g13
(g14
g15
NtRp2927
(dp2928
g18
I1
sg19
I0
sg20
I435
sg21
I0
sg22
I0
sg23
I211
sg24
I0
sbssg374
S'\xfb\xc2\xff\xe8\xaco7K{\x9e\xfa\xe6\x8e8\xcf\xb4'
p2929
ssS'_home_rawdata_Envs_venv_lib_python2_7_site-packages_django_contrib_admin_decorators'
p2930
(dp2931
g6
(dp2932
g8
S'_home_rawdata_Envs_venv_lib_python2_7_site-packages_django_contrib_admin_decorators.html'
p2933
sg10
S'/home/rawdata/Envs/venv/lib/python2.7/site-packages/django/contrib/admin/decorators'
p2934
sg12
g13
(g14
g15
NtRp2935
(dp2936
g18
I1
sg19
I0
sg20
I12
sg21
I0
sg22
I0
sg23
I11
sg24
I0
sbssg25
S'\xedELQ\xae\x96\xa0\xb9n\xf1i\xf2`36\xe3'
p2937
ssS'_home_rawdata_Envs_venv_lib_python2_7_site-packages_django_contrib_sites_shortcuts'
p2938
(dp2939
g6
(dp2940
g8
S'_home_rawdata_Envs_venv_lib_python2_7_site-packages_django_contrib_sites_shortcuts.html'
p2941
sg10
S'/home/rawdata/Envs/venv/lib/python2.7/site-packages/django/contrib/sites/shortcuts'
p2942
sg12
g13
(g14
g15
NtRp2943
(dp2944
g18
I1
sg19
I0
sg20
I8
sg21
I0
sg22
I0
sg23
I5
sg24
I0
sbssg25
S'\xf3D\x82\x96:C\x85P||\xcf;[\xebd\xd7'
p2945
ssS'apps_api_migrations___init__'
p2946
(dp2947
g6
(dp2948
g8
S'apps_api_migrations___init__.html'
p2949
sg10
S'apps/api/migrations/__init__'
p2950
sg12
g13
(g14
g15
NtRp2951
(dp2952
g18
I1
sg19
I0
sg20
I0
sg21
I0
sg22
I0
sg23
I0
sg24
I0
sbssg25
S'\xb0\xc8pN\xaf>\xa0\xbaz\x144\xe0A9\xb8?'
p2953
ssS'_home_rawdata_Envs_venv_lib_python2_7_site-packages_django_db_backends_sqlite3_client'
p2954
(dp2955
g6
(dp2956
g8
S'_home_rawdata_Envs_venv_lib_python2_7_site-packages_django_db_backends_sqlite3_client.html'
p2957
sg10
S'/home/rawdata/Envs/venv/lib/python2.7/site-packages/django/db/backends/sqlite3/client'
p2958
sg12
g13
(g14
g15
NtRp2959
(dp2960
g18
I1
sg19
I0
sg20
I10
sg21
I0
sg22
I0
sg23
I4
sg24
I0
sbssg25
S'\xc3\x1c\x16\x89\xf37o\xdb\xce\xa5IK\xe4\x85,\x08'
p2961
ssS'_home_rawdata_Envs_venv_lib_python2_7_site-packages_selenium_webdriver_remote_errorhandler'
p2962
(dp2963
g6
(dp2964
g367
S'_home_rawdata_Envs_venv_lib_python2_7_site-packages_selenium_webdriver_remote_errorhandler.html'
p2965
sg369
S'/home/rawdata/Envs/venv/lib/python2.7/site-packages/selenium/webdriver/remote/errorhandler'
p2966
sg371
g13
(g14
g15
NtRp2967
(dp2968
g18
I1
sg19
I0
sg20
I127
sg21
I0
sg22
I0
sg23
I46
sg24
I0
sbssg25
S'\x13Z:{.gl9\xba*\xcf\x02\xc9\xe6tr'
p2969
ssS'_home_rawdata_Envs_venv_lib_python2_7_site-packages_markdown_odict'
p2970
(dp2971
g6
(dp2972
g8
S'_home_rawdata_Envs_venv_lib_python2_7_site-packages_markdown_odict.html'
p2973
sg10
S'/home/rawdata/Envs/venv/lib/python2.7/site-packages/markdown/odict'
p2974
sg12
g13
(g14
g15
NtRp2975
(dp2976
g18
I1
sg19
I0
sg20
I113
sg21
I14
sg22
I0
sg23
I84
sg24
I0
sbssg25
S'Flpv\x99\x01\xcf\x81\x06\x7f\x89\x13c\xf2J\xdc'
p2977
ssS'_home_rawdata_Envs_venv_lib_python2_7_site-packages_django_http_utils'
p2978
(dp2979
g6
(dp2980
g8
S'_home_rawdata_Envs_venv_lib_python2_7_site-packages_django_http_utils.html'
p2981
sg10
S'/home/rawdata/Envs/venv/lib/python2.7/site-packages/django/http/utils'
p2982
sg12
g13
(g14
g15
NtRp2983
(dp2984
g18
I1
sg19
I0
sg20
I15
sg21
I0
sg22
I0
sg23
I13
sg24
I0
sbssg25
S'\x7fqK&\x80\x00u\xb1\xc5\x1aQ\xa8\xf8\xf1\x1b\xc0'
p2985
ssS'_home_rawdata_Envs_venv_lib_python2_7_site-packages_django_core_servers___init__'
p2986
(dp2987
g6
(dp2988
g8
S'_home_rawdata_Envs_venv_lib_python2_7_site-packages_django_core_servers___init__.html'
p2989
sg10
S'/home/rawdata/Envs/venv/lib/python2.7/site-packages/django/core/servers/__init__'
p2990
sg12
g13
(g14
g15
NtRp2991
(dp2992
g18
I1
sg19
I0
sg20
I0
sg21
I0
sg22
I0
sg23
I0
sg24
I0
sbssg25
S'\xb0\xc8pN\xaf>\xa0\xbaz\x144\xe0A9\xb8?'
p2993
ssS'_home_rawdata_Envs_venv_lib_python2_7_site-packages_django_test___init__'
p2994
(dp2995
g6
(dp2996
g8
S'_home_rawdata_Envs_venv_lib_python2_7_site-packages_django_test___init__.html'
p2997
sg10
S'/home/rawdata/Envs/venv/lib/python2.7/site-packages/django/test/__init__'
p2998
sg12
g13
(g14
g15
NtRp2999
(dp3000
g18
I1
sg19
I0
sg20
I4
sg21
I0
sg22
I0
sg23
I0
sg24
I0
sbssg25
S"\xa8'\xae\xd0fB{\xf4G:\xfc.\xaf~<m"
p3001
ssS'_home_rawdata_Envs_venv_lib_python2_7_site-packages_markdown_preprocessors'
p3002
(dp3003
g6
(dp3004
g8
S'_home_rawdata_Envs_venv_lib_python2_7_site-packages_markdown_preprocessors.html'
p3005
sg10
S'/home/rawdata/Envs/venv/lib/python2.7/site-packages/markdown/preprocessors'
p3006
sg12
g13
(g14
g15
NtRp3007
(dp3008
g18
I1
sg19
I0
sg20
I208
sg21
I1
sg22
I0
sg23
I178
sg24
I0
sbssg25
S'.\xe7\x9a\xf8c\xa5\xdfZ"1\x10\xa9\xf4\x89\x1b '
p3009
ssS'_home_rawdata_Envs_venv_lib_python2_7_site-packages_django_views_decorators_cache'
p3010
(dp3011
g6
(dp3012
g8
S'_home_rawdata_Envs_venv_lib_python2_7_site-packages_django_views_decorators_cache.html'
p3013
sg10
S'/home/rawdata/Envs/venv/lib/python2.7/site-packages/django/views/decorators/cache'
p3014
sg12
g13
(g14
g15
NtRp3015
(dp3016
g18
I1
sg19
I0
sg20
I27
sg21
I0
sg22
I0
sg23
I18
sg24
I0
sbssg25
S'\xcc2\xff\x12\xd7lL#H\xd9\x96\xd9\xc0\xb6\xb4E'
p3017
ssS'_home_rawdata_Envs_venv_lib_python2_7_site-packages_django_utils_cache'
p3018
(dp3019
g6
(dp3020
g8
S'_home_rawdata_Envs_venv_lib_python2_7_site-packages_django_utils_cache.html'
p3021
sg10
S'/home/rawdata/Envs/venv/lib/python2.7/site-packages/django/utils/cache'
p3022
sg12
g13
(g14
g15
NtRp3023
(dp3024
g18
I1
sg19
I0
sg20
I133
sg21
I0
sg22
I0
sg23
I109
sg24
I0
sbssg25
S'y\xff\x18\xd6\xfe\xea\xf9\x92\xb3\xad\xc2\xf4W\xd0q\xba'
p3025
ssS'_home_rawdata_Envs_venv_lib_python2_7_site-packages_django_contrib_auth_migrations_0001_initial'
p3026
(dp3027
g6
(dp3028
g8
S'_home_rawdata_Envs_venv_lib_python2_7_site-packages_django_contrib_auth_migrations_0001_initial.html'
p3029
sg10
S'/home/rawdata/Envs/venv/lib/python2.7/site-packages/django/contrib/auth/migrations/0001_initial'
p3030
sg12
g13
(g14
g15
NtRp3031
(dp3032
g18
I1
sg19
I0
sg20
I7
sg21
I0
sg22
I0
sg23
I0
sg24
I0
sbssg25
S'B\xa7\x03s\xbdMW&\xc6\x16\xf7)\x82\xc2\xcb\x8c'
p3033
ssS'_home_rawdata_Envs_venv_lib_python2_7_site-packages_django_contrib_sessions_migrations_0001_initial'
p3034
(dp3035
g6
(dp3036
g8
S'_home_rawdata_Envs_venv_lib_python2_7_site-packages_django_contrib_sessions_migrations_0001_initial.html'
p3037
sg10
S'/home/rawdata/Envs/venv/lib/python2.7/site-packages/django/contrib/sessions/migrations/0001_initial'
p3038
sg12
g13
(g14
g15
NtRp3039
(dp3040
g18
I1
sg19
I0
sg20
I5
sg21
I0
sg22
I0
sg23
I0
sg24
I0
sbssg25
S"\x99'#<\nE\xad\x97\xf7\xfd\xe7I\xcfX\xeb\x07"
p3041
ssS'_home_rawdata_Envs_venv_lib_python2_7_site-packages_crispy_forms_exceptions'
p3042
(dp3043
g6
(dp3044
g8
S'_home_rawdata_Envs_venv_lib_python2_7_site-packages_crispy_forms_exceptions.html'
p3045
sg10
S'/home/rawdata/Envs/venv/lib/python2.7/site-packages/crispy_forms/exceptions'
p3046
sg12
g13
(g14
g15
NtRp3047
(dp3048
g18
I1
sg19
I0
sg20
I6
sg21
I0
sg22
I0
sg23
I0
sg24
I0
sbssg25
S'e\xef\x97\x8f2\xe0 \x8f \x80\x86j\x7f=u\x85'
p3049
ssS'_home_rawdata_Envs_venv_lib_python2_7_site-packages_django_core_cache_backends___init__'
p3050
(dp3051
g6
(dp3052
g8
S'_home_rawdata_Envs_venv_lib_python2_7_site-packages_django_core_cache_backends___init__.html'
p3053
sg10
S'/home/rawdata/Envs/venv/lib/python2.7/site-packages/django/core/cache/backends/__init__'
p3054
sg12
g13
(g14
g15
NtRp3055
(dp3056
g18
I1
sg19
I0
sg20
I0
sg21
I0
sg22
I0
sg23
I0
sg24
I0
sbssg25
S'\xb0\xc8pN\xaf>\xa0\xbaz\x144\xe0A9\xb8?'
p3057
ssS'_home_rawdata_Envs_venv_lib_python2_7_site-packages_rest_framework_status'
p3058
(dp3059
g6
(dp3060
g8
S'_home_rawdata_Envs_venv_lib_python2_7_site-packages_rest_framework_status.html'
p3061
sg10
S'/home/rawdata/Envs/venv/lib/python2.7/site-packages/rest_framework/status'
p3062
sg12
g13
(g14
g15
NtRp3063
(dp3064
g18
I1
sg19
I0
sg20
I56
sg21
I0
sg22
I0
sg23
I5
sg24
I0
sbssg25
S'ZIHm\xfcI\x87SO2\xe8\xfad\x9f|\x81'
p3065
ssS'_home_rawdata_Envs_venv_lib_python2_7_site-packages_selenium_webdriver_common_alert'
p3066
(dp3067
g6
(dp3068
g8
S'_home_rawdata_Envs_venv_lib_python2_7_site-packages_selenium_webdriver_common_alert.html'
p3069
sg10
S'/home/rawdata/Envs/venv/lib/python2.7/site-packages/selenium/webdriver/common/alert'
p3070
sg12
g13
(g14
g15
NtRp3071
(dp3072
g18
I1
sg19
I0
sg20
I13
sg21
I0
sg22
I0
sg23
I5
sg24
I0
sbssg25
S'\x0fo\xbcgT\x1f\xb4\xaa9\xee\xb4\xf9\xd0\xa6\x12\x85'
p3073
ssS'_home_rawdata_Envs_venv_lib_python2_7_site-packages_django_contrib_auth_hashers'
p3074
(dp3075
g6
(dp3076
g8
S'_home_rawdata_Envs_venv_lib_python2_7_site-packages_django_contrib_auth_hashers.html'
p3077
sg10
S'/home/rawdata/Envs/venv/lib/python2.7/site-packages/django/contrib/auth/hashers'
p3078
sg12
g13
(g14
g15
NtRp3079
(dp3080
g18
I1
sg19
I0
sg20
I247
sg21
I0
sg22
I0
sg23
I160
sg24
I0
sbssg25
S'&{Q\x1d\xdf\x1a{\xd2D\xcc]\xfa\xe0\x95\x9f['
p3081
ssS'_home_rawdata_Envs_venv_lib_python2_7_site-packages_django_core_mail_utils'
p3082
(dp3083
g6
(dp3084
g8
S'_home_rawdata_Envs_venv_lib_python2_7_site-packages_django_core_mail_utils.html'
p3085
sg10
S'/home/rawdata/Envs/venv/lib/python2.7/site-packages/django/core/mail/utils'
p3086
sg12
g13
(g14
g15
NtRp3087
(dp3088
g18
I1
sg19
I0
sg20
I9
sg21
I0
sg22
I0
sg23
I4
sg24
I0
sbssg25
S'q\x8f\x86\xa8\x10\xa1\x04\x98^\x0e\xe8\x93\xb7X\xaan'
p3089
ssS'_home_rawdata_Envs_venv_lib_python2_7_site-packages_selenium_webdriver_common_by'
p3090
(dp3091
g6
(dp3092
g8
S'_home_rawdata_Envs_venv_lib_python2_7_site-packages_selenium_webdriver_common_by.html'
p3093
sg10
S'/home/rawdata/Envs/venv/lib/python2.7/site-packages/selenium/webdriver/common/by'
p3094
sg12
g13
(g14
g15
NtRp3095
(dp3096
g18
I1
sg19
I0
sg20
I15
sg21
I0
sg22
I0
sg23
I1
sg24
I0
sbssg25
S'\xeb\xebt\xbc\xf0l\xc3\xe0_\x15z\x19\xce\xbc\xa1\x87'
p3097
ssS'_home_rawdata_Envs_venv_lib_python2_7_site-packages_django_core_cache_backends_locmem'
p3098
(dp3099
g6
(dp3100
g8
S'_home_rawdata_Envs_venv_lib_python2_7_site-packages_django_core_cache_backends_locmem.html'
p3101
sg10
S'/home/rawdata/Envs/venv/lib/python2.7/site-packages/django/core/cache/backends/locmem'
p3102
sg12
g13
(g14
g15
NtRp3103
(dp3104
g18
I1
sg19
I0
sg20
I108
sg21
I0
sg22
I0
sg23
I81
sg24
I0
sbssg25
S'\x13\xb5=\x07\x93\x14ZX9\x1b\x9au\x8d6/\xfc'
p3105
ssS'_home_rawdata_Envs_venv_lib_python2_7_site-packages_selenium_webdriver_remote_utils'
p3106
(dp3107
g6
(dp3108
g8
S'_home_rawdata_Envs_venv_lib_python2_7_site-packages_selenium_webdriver_remote_utils.html'
p3109
sg10
S'/home/rawdata/Envs/venv/lib/python2.7/site-packages/selenium/webdriver/remote/utils'
p3110
sg12
g13
(g14
g15
NtRp3111
(dp3112
g18
I1
sg19
I0
sg20
I57
sg21
I0
sg22
I0
sg23
I41
sg24
I0
sbssg25
S'L\xc8X\x95\xe2\xc6(\x8c\xdc?Jf4.\x00\x1b'
p3113
ssS'_home_rawdata_Envs_venv_lib_python2_7_site-packages_model_mommy_generators'
p3114
(dp3115
g365
(dp3116
g367
S'_home_rawdata_Envs_venv_lib_python2_7_site-packages_model_mommy_generators.html'
p3117
sg369
S'/home/rawdata/Envs/venv/lib/python2.7/site-packages/model_mommy/generators'
p3118
sg371
g13
(g14
g15
NtRp3119
(dp3120
g18
I1
sg19
I0
sg20
I78
sg21
I0
sg22
I0
sg23
I41
sg24
I0
sbssg374
S'\xde\xe2n\x83\x86\xfe\xcd\x97b@\xc7\xa1\xfb\n\xe9\xaf'
p3121
ssS'_home_rawdata_Envs_venv_lib_python2_7_site-packages_model_mommy_timezone'
p3122
(dp3123
g365
(dp3124
g367
S'_home_rawdata_Envs_venv_lib_python2_7_site-packages_model_mommy_timezone.html'
p3125
sg369
S'/home/rawdata/Envs/venv/lib/python2.7/site-packages/model_mommy/timezone'
p3126
sg371
g13
(g14
g15
NtRp3127
(dp3128
g18
I1
sg19
I0
sg20
I16
sg21
I0
sg22
I0
sg23
I8
sg24
I0
sbssg374
S'\xa1\xa21Q\x05\x95\xc0\xaas\x90\x07%\xbc*\x99\x03'
p3129
ssS'_home_rawdata_Envs_venv_lib_python2_7_site-packages_django_template_defaultfilters'
p3130
(dp3131
g6
(dp3132
g8
S'_home_rawdata_Envs_venv_lib_python2_7_site-packages_django_template_defaultfilters.html'
p3133
sg10
S'/home/rawdata/Envs/venv/lib/python2.7/site-packages/django/template/defaultfilters'
p3134
sg12
g13
(g14
g15
NtRp3135
(dp3136
g18
I1
sg19
I0
sg20
I459
sg21
I0
sg22
I0
sg23
I327
sg24
I0
sbssg25
S'\xb3h\xef\xd0K\xb1\x9b\xae\xa5\x13\xef\x0e\xc3\xbe2\x15'
p3137
ssS'_home_rawdata_Envs_venv_lib_python2_7_site-packages_rest_framework_fields'
p3138
(dp3139
g6
(dp3140
g8
S'_home_rawdata_Envs_venv_lib_python2_7_site-packages_rest_framework_fields.html'
p3141
sg10
S'/home/rawdata/Envs/venv/lib/python2.7/site-packages/rest_framework/fields'
p3142
sg12
g13
(g14
g15
NtRp3143
(dp3144
g18
I1
sg19
I0
sg20
I741
sg21
I0
sg22
I0
sg23
I497
sg24
I0
sbssg25
S';\xd3H\x00d4\xc4;\x93\xfek\xee\xbb\x85\xfd"'
p3145
ssS'_home_rawdata_Envs_venv_lib_python2_7_site-packages_django_utils_deconstruct'
p3146
(dp3147
g6
(dp3148
g8
S'_home_rawdata_Envs_venv_lib_python2_7_site-packages_django_utils_deconstruct.html'
p3149
sg10
S'/home/rawdata/Envs/venv/lib/python2.7/site-packages/django/utils/deconstruct'
p3150
sg12
g13
(g14
g15
NtRp3151
(dp3152
g18
I1
sg19
I0
sg20
I24
sg21
I0
sg22
I0
sg23
I9
sg24
I0
sbssg25
S'\x95\xc9{eU\xf0\x10\xde\xb9\xc3Mn\x05\xc2\xbdJ'
p3153
ssS'_home_rawdata_Envs_venv_lib_python2_7_site-packages_model_mommy___init__'
p3154
(dp3155
g365
(dp3156
g367
S'_home_rawdata_Envs_venv_lib_python2_7_site-packages_model_mommy___init__.html'
p3157
sg369
S'/home/rawdata/Envs/venv/lib/python2.7/site-packages/model_mommy/__init__'
p3158
sg371
g13
(g14
g15
NtRp3159
(dp3160
g18
I1
sg19
I0
sg20
I4
sg21
I0
sg22
I0
sg23
I0
sg24
I0
sbssg374
S"\x8a'0\x801/\xe7\x914\xa9\x1aPA\xad\xe3k"
p3161
ssS'_home_rawdata_Envs_venv_lib_python2_7_site-packages_django_contrib_auth_tokens'
p3162
(dp3163
g6
(dp3164
g8
S'_home_rawdata_Envs_venv_lib_python2_7_site-packages_django_contrib_auth_tokens.html'
p3165
sg10
S'/home/rawdata/Envs/venv/lib/python2.7/site-packages/django/contrib/auth/tokens'
p3166
sg12
g13
(g14
g15
NtRp3167
(dp3168
g18
I1
sg19
I0
sg20
I34
sg21
I0
sg22
I0
sg23
I22
sg24
I0
sbssg25
S'\xd1\xd4\x9e\xff2}]\xe5\x00\xf9\xfe\x868\xa6\x92+'
p3169
ssS'_home_rawdata_Envs_venv_lib_python2_7_site-packages_django_contrib_admin_migrations___init__'
p3170
(dp3171
g6
(dp3172
g8
S'_home_rawdata_Envs_venv_lib_python2_7_site-packages_django_contrib_admin_migrations___init__.html'
p3173
sg10
S'/home/rawdata/Envs/venv/lib/python2.7/site-packages/django/contrib/admin/migrations/__init__'
p3174
sg12
g13
(g14
g15
NtRp3175
(dp3176
g18
I1
sg19
I0
sg20
I0
sg21
I0
sg22
I0
sg23
I0
sg24
I0
sbssg25
S'\xb0\xc8pN\xaf>\xa0\xbaz\x144\xe0A9\xb8?'
p3177
ssS'_home_rawdata_Envs_venv_lib_python2_7_site-packages_django_db_migrations_state'
p3178
(dp3179
g6
(dp3180
g8
S'_home_rawdata_Envs_venv_lib_python2_7_site-packages_django_db_migrations_state.html'
p3181
sg10
S'/home/rawdata/Envs/venv/lib/python2.7/site-packages/django/db/migrations/state'
p3182
sg12
g13
(g14
g15
NtRp3183
(dp3184
g18
I1
sg19
I0
sg20
I183
sg21
I0
sg22
I0
sg23
I98
sg24
I0
sbssg25
S'\x89\xc7/\xad\xb0\xf5w\x042\xb9/9Mvzm'
p3185
ssS'_home_rawdata_Envs_venv_lib_python2_7_site-packages_django_db_migrations_optimizer'
p3186
(dp3187
g6
(dp3188
g8
S'_home_rawdata_Envs_venv_lib_python2_7_site-packages_django_db_migrations_optimizer.html'
p3189
sg10
S'/home/rawdata/Envs/venv/lib/python2.7/site-packages/django/db/migrations/optimizer'
p3190
sg12
g13
(g14
g15
NtRp3191
(dp3192
g18
I1
sg19
I0
sg20
I98
sg21
I0
sg22
I0
sg23
I75
sg24
I0
sbssg25
S'J\x9aJ\\k\x1f\xc04#->\xcb\xcb\x93_\xa5'
p3193
ssS'_home_rawdata_Envs_venv_lib_python2_7_site-packages_django_utils_numberformat'
p3194
(dp3195
g6
(dp3196
g8
S'_home_rawdata_Envs_venv_lib_python2_7_site-packages_django_utils_numberformat.html'
p3197
sg10
S'/home/rawdata/Envs/venv/lib/python2.7/site-packages/django/utils/numberformat'
p3198
sg12
g13
(g14
g15
NtRp3199
(dp3200
g18
I1
sg19
I0
sg20
I31
sg21
I0
sg22
I0
sg23
I27
sg24
I0
sbssg25
S'\xf0(3>w\xdbe\x8d\x05\x0e\x03\x13{\x0c\x8d/'
p3201
ssS'_home_rawdata_Envs_venv_lib_python2_7_site-packages_django_db_models_query_utils'
p3202
(dp3203
g6
(dp3204
g8
S'_home_rawdata_Envs_venv_lib_python2_7_site-packages_django_db_models_query_utils.html'
p3205
sg10
S'/home/rawdata/Envs/venv/lib/python2.7/site-packages/django/db/models/query_utils'
p3206
sg12
g13
(g14
g15
NtRp3207
(dp3208
g18
I1
sg19
I0
sg20
I104
sg21
I0
sg22
I0
sg23
I75
sg24
I0
sbssg25
S'\x81\x96\x0fY] \x99\xb6\xc6\x0f\xf6\x86\xaf\xb0)\xf4'
p3209
ssS'_home_rawdata_Envs_venv_lib_python2_7_site-packages_django_template_defaulttags'
p3210
(dp3211
g6
(dp3212
g8
S'_home_rawdata_Envs_venv_lib_python2_7_site-packages_django_template_defaulttags.html'
p3213
sg10
S'/home/rawdata/Envs/venv/lib/python2.7/site-packages/django/template/defaulttags'
p3214
sg12
g13
(g14
g15
NtRp3215
(dp3216
g18
I1
sg19
I0
sg20
I621
sg21
I0
sg22
I0
sg23
I497
sg24
I0
sbssg25
S'\xf4(WP_\x83U\xc1\xa8e\xfe\x9f\x1b\x87W\xdd'
p3217
ssS'_home_rawdata_Envs_venv_lib_python2_7_site-packages_selenium_webdriver_common_desired_capabilities'
p3218
(dp3219
g6
(dp3220
g8
S'_home_rawdata_Envs_venv_lib_python2_7_site-packages_selenium_webdriver_common_desired_capabilities.html'
p3221
sg10
S'/home/rawdata/Envs/venv/lib/python2.7/site-packages/selenium/webdriver/common/desired_capabilities'
p3222
sg12
g13
(g14
g15
NtRp3223
(dp3224
g18
I1
sg19
I0
sg20
I13
sg21
I0
sg22
I0
sg23
I0
sg24
I0
sbssg25
S'-\xcb\xd6\xb5\x1aC\xc3\xc0C\xea\xc2\x82V\xdf/\xe9'
p3225
ssS'_home_rawdata_Envs_venv_lib_python2_7_site-packages_django_db_migrations_recorder'
p3226
(dp3227
g6
(dp3228
g8
S'_home_rawdata_Envs_venv_lib_python2_7_site-packages_django_db_migrations_recorder.html'
p3229
sg10
S'/home/rawdata/Envs/venv/lib/python2.7/site-packages/django/db/migrations/recorder'
p3230
sg12
g13
(g14
g15
NtRp3231
(dp3232
g18
I1
sg19
I0
sg20
I37
sg21
I0
sg22
I0
sg23
I4
sg24
I0
sbssg25
S'\x99\xaagkkyA1\xdb\x06\x99W\x90b\xf84'
p3233
ssS'_home_rawdata_Envs_venv_lib_python2_7_site-packages_django_utils_dates'
p3234
(dp3235
g6
(dp3236
g8
S'_home_rawdata_Envs_venv_lib_python2_7_site-packages_django_utils_dates.html'
p3237
sg10
S'/home/rawdata/Envs/venv/lib/python2.7/site-packages/django/utils/dates'
p3238
sg12
g13
(g14
g15
NtRp3239
(dp3240
g18
I1
sg19
I0
sg20
I9
sg21
I0
sg22
I0
sg23
I0
sg24
I0
sbssg25
S'\xe5\xc8\x1e\xf3\x93K:ws\xfe\x7fBXc\xa9\xe1'
p3241
ssS'_home_rawdata_Envs_venv_lib_python2_7_site-packages_django_utils___init__'
p3242
(dp3243
g6
(dp3244
g8
S'_home_rawdata_Envs_venv_lib_python2_7_site-packages_django_utils___init__.html'
p3245
sg10
S'/home/rawdata/Envs/venv/lib/python2.7/site-packages/django/utils/__init__'
p3246
sg12
g13
(g14
g15
NtRp3247
(dp3248
g18
I1
sg19
I0
sg20
I0
sg21
I0
sg22
I0
sg23
I0
sg24
I0
sbssg25
S'\xb0\xc8pN\xaf>\xa0\xbaz\x144\xe0A9\xb8?'
p3249
ssS'_home_rawdata_Envs_venv_lib_python2_7_site-packages_django_utils_synch'
p3250
(dp3251
g6
(dp3252
g8
S'_home_rawdata_Envs_venv_lib_python2_7_site-packages_django_utils_synch.html'
p3253
sg10
S'/home/rawdata/Envs/venv/lib/python2.7/site-packages/django/utils/synch'
p3254
sg12
g13
(g14
g15
NtRp3255
(dp3256
g18
I1
sg19
I0
sg20
I59
sg21
I0
sg22
I0
sg23
I41
sg24
I0
sbssg25
S'\xa7\t\n\xfc\xae\xdd\xfb\xff\x9c \xb4\xdb\xe0\xa2\x88\xb3'
p3257
ssS'_home_rawdata_Envs_venv_lib_python2_7_site-packages_django_views_generic_detail'
p3258
(dp3259
g6
(dp3260
g8
S'_home_rawdata_Envs_venv_lib_python2_7_site-packages_django_views_generic_detail.html'
p3261
sg10
S'/home/rawdata/Envs/venv/lib/python2.7/site-packages/django/views/generic/detail'
p3262
sg12
g13
(g14
g15
NtRp3263
(dp3264
g18
I1
sg19
I0
sg20
I77
sg21
I0
sg22
I0
sg23
I52
sg24
I0
sbssg25
S'\xe0E\x82\x85\x82:\xdb\x81\xf3x\xa4\x17\x82\x83\xc0Z'
p3265
ssS'_home_rawdata_Envs_venv_lib_python2_7_site-packages_django_core_management_commands_test'
p3266
(dp3267
g6
(dp3268
g367
S'_home_rawdata_Envs_venv_lib_python2_7_site-packages_django_core_management_commands_test.html'
p3269
sg369
S'/home/rawdata/Envs/venv/lib/python2.7/site-packages/django/core/management/commands/test'
p3270
sg371
g13
(g14
g15
NtRp3271
(dp3272
g18
I1
sg19
I0
sg20
I46
sg21
I0
sg22
I0
sg23
I6
sg24
I0
sbssg25
S'\xf6\xa6\xd1U/F\xf5\xfd\x04p\x98\xd69\xdb\xd1\xcb'
p3273
ssS'_home_rawdata_Envs_venv_lib_python2_7_site-packages_django_contrib_admin_sites'
p3274
(dp3275
g6
(dp3276
g8
S'_home_rawdata_Envs_venv_lib_python2_7_site-packages_django_contrib_admin_sites.html'
p3277
sg10
S'/home/rawdata/Envs/venv/lib/python2.7/site-packages/django/contrib/admin/sites'
p3278
sg12
g13
(g14
g15
NtRp3279
(dp3280
g18
I1
sg19
I0
sg20
I220
sg21
I0
sg22
I0
sg23
I148
sg24
I0
sbssg25
S'\xb7\x81\xec\x00\x10J\xfc&jA\x16!ep\xc4\x9c'
p3281
ssS'_home_rawdata_Envs_venv_lib_python2_7_site-packages_django_contrib_admin_templatetags___init__'
p3282
(dp3283
g6
(dp3284
g8
S'_home_rawdata_Envs_venv_lib_python2_7_site-packages_django_contrib_admin_templatetags___init__.html'
p3285
sg10
S'/home/rawdata/Envs/venv/lib/python2.7/site-packages/django/contrib/admin/templatetags/__init__'
p3286
sg12
g13
(g14
g15
NtRp3287
(dp3288
g18
I1
sg19
I0
sg20
I0
sg21
I0
sg22
I0
sg23
I0
sg24
I0
sbssg25
S'\xb0\xc8pN\xaf>\xa0\xbaz\x144\xe0A9\xb8?'
p3289
ssS'_home_rawdata_Envs_venv_lib_python2_7_site-packages_rest_framework_validators'
p3290
(dp3291
g6
(dp3292
g8
S'_home_rawdata_Envs_venv_lib_python2_7_site-packages_rest_framework_validators.html'
p3293
sg10
S'/home/rawdata/Envs/venv/lib/python2.7/site-packages/rest_framework/validators'
p3294
sg12
g13
(g14
g15
NtRp3295
(dp3296
g18
I1
sg19
I0
sg20
I128
sg21
I0
sg22
I0
sg23
I86
sg24
I0
sbssg25
S'\xc0%G\x0f\t\x94\x05\x83\x85^\xa2\x9b\xa3.#y'
p3297
ssS'_home_rawdata_Envs_venv_lib_python2_7_site-packages_django_db_migrations_graph'
p3298
(dp3299
g6
(dp3300
g8
S'_home_rawdata_Envs_venv_lib_python2_7_site-packages_django_db_migrations_graph.html'
p3301
sg10
S'/home/rawdata/Envs/venv/lib/python2.7/site-packages/django/db/migrations/graph'
p3302
sg12
g13
(g14
g15
NtRp3303
(dp3304
g18
I1
sg19
I0
sg20
I89
sg21
I0
sg22
I0
sg23
I11
sg24
I0
sbssg25
S'\xac\x92h\xbd\x1a2\xfa\xb7\x0b\xfd\xf5\x97\xa5\x9e\x88\x85'
p3305
ssS'_home_rawdata_Envs_venv_lib_python2_7_site-packages_django_contrib_contenttypes_models'
p3306
(dp3307
g6
(dp3308
g8
S'_home_rawdata_Envs_venv_lib_python2_7_site-packages_django_contrib_contenttypes_models.html'
p3309
sg10
S'/home/rawdata/Envs/venv/lib/python2.7/site-packages/django/contrib/contenttypes/models'
p3310
sg12
g13
(g14
g15
NtRp3311
(dp3312
g18
I1
sg19
I0
sg20
I105
sg21
I0
sg22
I0
sg23
I54
sg24
I0
sbssg25
S'}C\xfa@\x90\x82\xaefy\xfc\xd1L\x1f\xe9\xae\x8f'
p3313
ssS'_home_rawdata_Envs_venv_lib_python2_7_site-packages_django_utils_translation___init__'
p3314
(dp3315
g6
(dp3316
g8
S'_home_rawdata_Envs_venv_lib_python2_7_site-packages_django_utils_translation___init__.html'
p3317
sg10
S'/home/rawdata/Envs/venv/lib/python2.7/site-packages/django/utils/translation/__init__'
p3318
sg12
g13
(g14
g15
NtRp3319
(dp3320
g18
I1
sg19
I0
sg20
I115
sg21
I0
sg22
I0
sg23
I52
sg24
I0
sbssg25
S'i\xcf\x109\xf7!\xd7:<\xa6\xd7\xa2\x89\x1a><'
p3321
ssS'_home_rawdata_Envs_venv_lib_python2_7_site-packages_django_core_management_sql'
p3322
(dp3323
g6
(dp3324
g8
S'_home_rawdata_Envs_venv_lib_python2_7_site-packages_django_core_management_sql.html'
p3325
sg10
S'/home/rawdata/Envs/venv/lib/python2.7/site-packages/django/core/management/sql'
p3326
sg12
g13
(g14
g15
NtRp3327
(dp3328
g18
I1
sg19
I0
sg20
I152
sg21
I0
sg22
I0
sg23
I113
sg24
I0
sbssg25
S'\xf5\xf4\xd1)-SN\x92L\x00"\xe7\xbb\xa5\x0b\xf5'
p3329
ssS'_home_rawdata_Envs_venv_lib_python2_7_site-packages_django_db_models_signals'
p3330
(dp3331
g6
(dp3332
g8
S'_home_rawdata_Envs_venv_lib_python2_7_site-packages_django_db_models_signals.html'
p3333
sg10
S'/home/rawdata/Envs/venv/lib/python2.7/site-packages/django/db/models/signals'
p3334
sg12
g13
(g14
g15
NtRp3335
(dp3336
g18
I1
sg19
I0
sg20
I43
sg21
I0
sg22
I0
sg23
I15
sg24
I0
sbssg25
S'j\x92\x99\x93\x81=o\x9c\x96:Vt\x1c`(J'
p3337
ssS'_home_rawdata_Envs_venv_lib_python2_7_site-packages_rest_framework___init__'
p3338
(dp3339
g6
(dp3340
g8
S'_home_rawdata_Envs_venv_lib_python2_7_site-packages_rest_framework___init__.html'
p3341
sg10
S'/home/rawdata/Envs/venv/lib/python2.7/site-packages/rest_framework/__init__'
p3342
sg12
g13
(g14
g15
NtRp3343
(dp3344
g18
I1
sg19
I0
sg20
I8
sg21
I0
sg22
I0
sg23
I0
sg24
I0
sbssg25
S'\xb0z^\x86t\xe4\xc3\xbbgs\x11\x81AJmC'
p3345
ssS'_home_rawdata_Envs_venv_lib_python2_7_site-packages_django_core_files_storage'
p3346
(dp3347
g6
(dp3348
g8
S'_home_rawdata_Envs_venv_lib_python2_7_site-packages_django_core_files_storage.html'
p3349
sg10
S'/home/rawdata/Envs/venv/lib/python2.7/site-packages/django/core/files/storage'
p3350
sg12
g13
(g14
g15
NtRp3351
(dp3352
g18
I1
sg19
I0
sg20
I153
sg21
I0
sg22
I0
sg23
I105
sg24
I0
sbssg25
S'\xcc\xcc\xe4\xb0-\xb9Y\xfd\xe9u\x82\xbaR\x91\x9d;'
p3353
ssS'_home_rawdata_Envs_venv_lib_python2_7_site-packages_crispy_forms___init__'
p3354
(dp3355
g6
(dp3356
g8
S'_home_rawdata_Envs_venv_lib_python2_7_site-packages_crispy_forms___init__.html'
p3357
sg10
S'/home/rawdata/Envs/venv/lib/python2.7/site-packages/crispy_forms/__init__'
p3358
sg12
g13
(g14
g15
NtRp3359
(dp3360
g18
I1
sg19
I0
sg20
I1
sg21
I0
sg22
I0
sg23
I0
sg24
I0
sbssg25
S'\xde;\x1f\xc6(]&\x99\xd4\tr\xef\xa2P\x19\xeb'
p3361
ssS'_home_rawdata_Envs_venv_lib_python2_7_site-packages_selenium_webdriver_remote_command'
p3362
(dp3363
g6
(dp3364
g8
S'_home_rawdata_Envs_venv_lib_python2_7_site-packages_selenium_webdriver_remote_command.html'
p3365
sg10
S'/home/rawdata/Envs/venv/lib/python2.7/site-packages/selenium/webdriver/remote/command'
p3366
sg12
g13
(g14
g15
NtRp3367
(dp3368
g18
I1
sg19
I0
sg20
I101
sg21
I0
sg22
I0
sg23
I0
sg24
I0
sbssg25
S'%\xba\xcdK\x95\xdd\xd2\x14\xb2\xb3\x05)+\x8f\x7f\x9c'
p3369
ssS'_home_rawdata_Envs_venv_lib_python2_7_site-packages_selenium_webdriver_safari_service'
p3370
(dp3371
g6
(dp3372
g8
S'_home_rawdata_Envs_venv_lib_python2_7_site-packages_selenium_webdriver_safari_service.html'
p3373
sg10
S'/home/rawdata/Envs/venv/lib/python2.7/site-packages/selenium/webdriver/safari/service'
p3374
sg12
g13
(g14
g15
NtRp3375
(dp3376
g18
I1
sg19
I0
sg20
I36
sg21
I0
sg22
I0
sg23
I25
sg24
I0
sbssg25
S'\x0bk\xdb_\xc7\xd9b$:\xfeV\xa0oE5h'
p3377
ssS'_home_rawdata_Envs_venv_lib_python2_7_site-packages_django_db_models_constants'
p3378
(dp3379
g6
(dp3380
g8
S'_home_rawdata_Envs_venv_lib_python2_7_site-packages_django_db_models_constants.html'
p3381
sg10
S'/home/rawdata/Envs/venv/lib/python2.7/site-packages/django/db/models/constants'
p3382
sg12
g13
(g14
g15
NtRp3383
(dp3384
g18
I1
sg19
I0
sg20
I1
sg21
I0
sg22
I0
sg23
I0
sg24
I0
sbssg25
S'\xb9g\xea"\xa4\xe6,\x8a\xed<\xce\xce_\x8fz\x0f'
p3385
ssS'_home_rawdata_Envs_venv_lib_python2_7_site-packages_rest_framework_test'
p3386
(dp3387
g6
(dp3388
g8
S'_home_rawdata_Envs_venv_lib_python2_7_site-packages_rest_framework_test.html'
p3389
sg10
S'/home/rawdata/Envs/venv/lib/python2.7/site-packages/rest_framework/test'
p3390
sg12
g13
(g14
g15
NtRp3391
(dp3392
g18
I1
sg19
I0
sg20
I130
sg21
I0
sg22
I0
sg23
I82
sg24
I0
sbssg25
S'\x03\x98\xe3\x16\xdc\x9el\xefgf:\x82\xb9\x8f\xa0\x16'
p3393
ssS'_home_rawdata_Envs_venv_lib_python2_7_site-packages_django_middleware___init__'
p3394
(dp3395
g6
(dp3396
g8
S'_home_rawdata_Envs_venv_lib_python2_7_site-packages_django_middleware___init__.html'
p3397
sg10
S'/home/rawdata/Envs/venv/lib/python2.7/site-packages/django/middleware/__init__'
p3398
sg12
g13
(g14
g15
NtRp3399
(dp3400
g18
I1
sg19
I0
sg20
I0
sg21
I0
sg22
I0
sg23
I0
sg24
I0
sbssg25
S'\xb0\xc8pN\xaf>\xa0\xbaz\x144\xe0A9\xb8?'
p3401
ssS'apps_api_models'
p3402
(dp3403
g6
(dp3404
g8
S'apps_api_models.html'
p3405
sg10
S'apps/api/models'
p3406
sg12
g13
(g14
g15
NtRp3407
(dp3408
g18
I1
sg19
I0
sg20
I1
sg21
I0
sg22
I0
sg23
I0
sg24
I0
sbssg25
S'\xd6L\xb8\xbdB\n\xefe\xa68\xebv\xbb\xe0\x1cm'
p3409
ssS'_home_rawdata_Envs_venv_lib_python2_7_site-packages_rest_framework_relations'
p3410
(dp3411
g6
(dp3412
g8
S'_home_rawdata_Envs_venv_lib_python2_7_site-packages_rest_framework_relations.html'
p3413
sg10
S'/home/rawdata/Envs/venv/lib/python2.7/site-packages/rest_framework/relations'
p3414
sg12
g13
(g14
g15
NtRp3415
(dp3416
g18
I1
sg19
I0
sg20
I183
sg21
I0
sg22
I0
sg23
I125
sg24
I0
sbssg25
S'a,\xd7]\xe6\xe2\xda\x8d\\\xf8\x85\x90W=Ts'
p3417
sssS'version'
p3418
S'3.6'
p3419
sS'settings'
p3420
S'3\xcf\xa1\x19.\x88o$\x8cA\xde\xbd\xcd\x06\xa1\x0f'
p3421
sS'format'
p3422
I1
s.